(dp0
S'METTS MARK'
p1
(dp2
S'to_messages'
p3
L807L
sS'deferral_payments'
p4
L0L
sS'expenses'
p5
L94299L
sS'poi'
p6
I00
sS'long_term_incentive'
p7
L0L
sS'email_address'
p8
S'mark.metts@enron.com'
p9
sS'from_poi_to_this_person'
p10
L38L
sS'deferred_income'
p11
L0L
sS'fraction_from_poi'
p12
F0.04708798017348203
sS'restricted_stock_deferred'
p13
L0L
sS'shared_receipt_with_poi'
p14
L702L
sS'loan_advances'
p15
L0L
sS'from_messages'
p16
L29L
sS'other'
p17
L1740L
sS'director_fees'
p18
L0L
sS'messages_with_poi'
p19
L741L
sS'bonus'
p20
L600000L
sS'total_stock_value'
p21
L585062L
sS'from_this_person_to_poi'
p22
L1L
sS'restricted_stock'
p23
L585062L
sS'salary'
p24
L365788L
sS'total_payments'
p25
L1061827L
sS'fraction_to_poi'
p26
F0.034482758620689655
sS'exercised_stock_options'
p27
L0L
ssS'BAXTER JOHN C'
p28
(dp29
g3
L0L
sg4
L1295738L
sg5
L11200L
sg6
I00
sg7
L1586055L
sg8
I0
sg10
L0L
sg11
L-1386055L
sg12
F0.0
sg13
L0L
sg14
L0L
sg15
L0L
sg16
L0L
sg17
L2660303L
sg18
L0L
sg19
L0L
sg20
L1200000L
sg21
L10623258L
sg22
L0L
sg23
L3942714L
sg24
L267102L
sg25
L5634343L
sg26
F0.0
sg27
L6680544L
ssS'ELLIOTT STEVEN'
p30
(dp31
g3
L0L
sg4
L0L
sg5
L78552L
sg6
I00
sg7
L0L
sg8
S'steven.elliott@enron.com'
p32
sg10
L0L
sg11
L-400729L
sg12
F0.0
sg13
L0L
sg14
L0L
sg15
L0L
sg16
L0L
sg17
L12961L
sg18
L0L
sg19
L0L
sg20
L350000L
sg21
L6678735L
sg22
L0L
sg23
L1788391L
sg24
L170941L
sg25
L211725L
sg26
F0.0
sg27
L4890344L
ssS'CORDES WILLIAM R'
p33
(dp34
g3
L764L
sg4
L0L
sg5
L0L
sg6
I00
sg7
L0L
sg8
S'bill.cordes@enron.com'
p35
sg10
L10L
sg11
L0L
sg12
F0.013089005235602094
sg13
L0L
sg14
L58L
sg15
L0L
sg16
L12L
sg17
L0L
sg18
L0L
sg19
L68L
sg20
L0L
sg21
L1038185L
sg22
L0L
sg23
L386335L
sg24
L0L
sg25
L0L
sg26
F0.0
sg27
L651850L
ssS'HANNON KEVIN P'
p36
(dp37
g3
L1045L
sg4
L0L
sg5
L34039L
sg6
I01
sg7
L1617011L
sg8
S'kevin.hannon@enron.com'
p38
sg10
L32L
sg11
L-3117011L
sg12
F0.03062200956937799
sg13
L0L
sg14
L1035L
sg15
L0L
sg16
L32L
sg17
L11350L
sg18
L0L
sg19
L1088L
sg20
L1500000L
sg21
L6391065L
sg22
L21L
sg23
L853064L
sg24
L243293L
sg25
L288682L
sg26
F0.65625
sg27
L5538001L
ssS'MORDAUNT KRISTINA M'
p39
(dp40
g3
L0L
sg4
L0L
sg5
L35018L
sg6
I00
sg7
L0L
sg8
S'kristina.mordaunt@enron.com'
p41
sg10
L0L
sg11
L0L
sg12
F0.0
sg13
L0L
sg14
L0L
sg15
L0L
sg16
L0L
sg17
L1411L
sg18
L0L
sg19
L0L
sg20
L325000L
sg21
L208510L
sg22
L0L
sg23
L208510L
sg24
L267093L
sg25
L628522L
sg26
F0.0
sg27
L0L
ssS'MEYER ROCKFORD G'
p42
(dp43
g3
L232L
sg4
L1848227L
sg5
L0L
sg6
I00
sg7
L0L
sg8
S'rockford.meyer@enron.com'
p44
sg10
L0L
sg11
L0L
sg12
F0.0
sg13
L0L
sg14
L22L
sg15
L0L
sg16
L28L
sg17
L0L
sg18
L0L
sg19
L22L
sg20
L0L
sg21
L955873L
sg22
L0L
sg23
L462384L
sg24
L0L
sg25
L1848227L
sg26
F0.0
sg27
L493489L
ssS'MCMAHON JEFFREY'
p45
(dp46
g3
L2355L
sg4
L0L
sg5
L137108L
sg6
I00
sg7
L694862L
sg8
S'jeffrey.mcmahon@enron.com'
p47
sg10
L58L
sg11
L0L
sg12
F0.024628450106157114
sg13
L0L
sg14
L2228L
sg15
L0L
sg16
L48L
sg17
L297353L
sg18
L0L
sg19
L2312L
sg20
L2600000L
sg21
L1662855L
sg22
L26L
sg23
L558801L
sg24
L370448L
sg25
L4099771L
sg26
F0.5416666666666666
sg27
L1104054L
ssS'HAEDICKE MARK E'
p48
(dp49
g3
L4009L
sg4
L2157527L
sg5
L76169L
sg6
I00
sg7
L983346L
sg8
S'mark.haedicke@enron.com'
p50
sg10
L180L
sg11
L-934484L
sg12
F0.04489897730107259
sg13
L-329825L
sg14
L1847L
sg15
L0L
sg16
L1941L
sg17
L52382L
sg18
L0L
sg19
L2088L
sg20
L1150000L
sg21
L803094L
sg22
L61L
sg23
L524169L
sg24
L374125L
sg25
L3859065L
sg26
F0.03142709943328181
sg27
L608750L
ssS'PIPER GREGORY F'
p51
(dp52
g3
L1238L
sg4
L1130036L
sg5
L43057L
sg6
I00
sg7
L0L
sg8
S'greg.piper@enron.com'
p53
sg10
L61L
sg11
L-33333L
sg12
F0.049273021001615507
sg13
L-409554L
sg14
L742L
sg15
L0L
sg16
L222L
sg17
L778L
sg18
L0L
sg19
L851L
sg20
L400000L
sg21
L880290L
sg22
L48L
sg23
L409554L
sg24
L197091L
sg25
L1737629L
sg26
F0.21621621621621623
sg27
L880290L
ssS'HUMPHREY GENE E'
p54
(dp55
g3
L128L
sg4
L2964506L
sg5
L4994L
sg6
I00
sg7
L0L
sg8
S'gene.humphrey@enron.com'
p56
sg10
L10L
sg11
L0L
sg12
F0.078125
sg13
L0L
sg14
L119L
sg15
L0L
sg16
L17L
sg17
L0L
sg18
L0L
sg19
L146L
sg20
L0L
sg21
L2282768L
sg22
L17L
sg23
L0L
sg24
L130724L
sg25
L3100224L
sg26
F1.0
sg27
L2282768L
ssS'NOLES JAMES L'
p57
(dp58
g3
L0L
sg4
L774401L
sg5
L0L
sg6
I00
sg7
L0L
sg8
I0
sg10
L0L
sg11
L0L
sg12
F0.0
sg13
L-94556L
sg14
L0L
sg15
L0L
sg16
L0L
sg17
L0L
sg18
L0L
sg19
L0L
sg20
L0L
sg21
L368705L
sg22
L0L
sg23
L463261L
sg24
L0L
sg25
L774401L
sg26
F0.0
sg27
L0L
ssS'BLACHMAN JEREMY M'
p59
(dp60
g3
L2475L
sg4
L0L
sg5
L84208L
sg6
I00
sg7
L831809L
sg8
S'jeremy.blachman@enron.com'
p61
sg10
L25L
sg11
L0L
sg12
F0.010101010101010102
sg13
L0L
sg14
L2326L
sg15
L0L
sg16
L14L
sg17
L272L
sg18
L0L
sg19
L2353L
sg20
L850000L
sg21
L954354L
sg22
L2L
sg23
L189041L
sg24
L248546L
sg25
L2014835L
sg26
F0.14285714285714285
sg27
L765313L
ssS'SUNDE MARTIN'
p62
(dp63
g3
L2647L
sg4
L0L
sg5
L0L
sg6
I00
sg7
L476451L
sg8
S'marty.sunde@enron.com'
p64
sg10
L37L
sg11
L0L
sg12
F0.013978088401964487
sg13
L0L
sg14
L2565L
sg15
L0L
sg16
L38L
sg17
L111122L
sg18
L0L
sg19
L2615L
sg20
L700000L
sg21
L698920L
sg22
L13L
sg23
L698920L
sg24
L257486L
sg25
L1545059L
sg26
F0.34210526315789475
sg27
L0L
ssS'GIBBS DANA R'
p65
(dp66
g3
L169L
sg4
L504610L
sg5
L0L
sg6
I00
sg7
L461912L
sg8
S'dana.gibbs@enron.com'
p67
sg10
L0L
sg11
L0L
sg12
F0.0
sg13
L0L
sg14
L23L
sg15
L0L
sg16
L12L
sg17
L0L
sg18
L0L
sg19
L23L
sg20
L0L
sg21
L2218275L
sg22
L0L
sg23
L0L
sg24
L0L
sg25
L966522L
sg26
F0.0
sg27
L2218275L
ssS'LOWRY CHARLES P'
p68
(dp69
g3
L0L
sg4
L0L
sg5
L0L
sg6
I00
sg7
L0L
sg8
I0
sg10
L0L
sg11
L0L
sg12
F0.0
sg13
L-153686L
sg14
L0L
sg15
L0L
sg16
L0L
sg17
L0L
sg18
L0L
sg19
L0L
sg20
L0L
sg21
L372205L
sg22
L0L
sg23
L153686L
sg24
L0L
sg25
L0L
sg26
F0.0
sg27
L372205L
ssS'COLWELL WESLEY'
p70
(dp71
g3
L1758L
sg4
L27610L
sg5
L16514L
sg6
I01
sg7
L0L
sg8
S'wes.colwell@enron.com'
p72
sg10
L240L
sg11
L-144062L
sg12
F0.13651877133105803
sg13
L0L
sg14
L1132L
sg15
L0L
sg16
L40L
sg17
L101740L
sg18
L0L
sg19
L1383L
sg20
L1200000L
sg21
L698242L
sg22
L11L
sg23
L698242L
sg24
L288542L
sg25
L1490344L
sg26
F0.275
sg27
L0L
ssS'MULLER MARK S'
p73
(dp74
g3
L136L
sg4
L842924L
sg5
L0L
sg6
I00
sg7
L1725545L
sg8
S's..muller@enron.com'
p75
sg10
L12L
sg11
L-719000L
sg12
F0.08823529411764706
sg13
L0L
sg14
L114L
sg15
L0L
sg16
L16L
sg17
L947L
sg18
L0L
sg19
L126L
sg20
L1100000L
sg21
L1416848L
sg22
L0L
sg23
L360528L
sg24
L251654L
sg25
L3202070L
sg26
F0.0
sg27
L1056320L
ssS'JACKSON CHARLENE R'
p76
(dp77
g3
L258L
sg4
L0L
sg5
L10181L
sg6
I00
sg7
L0L
sg8
S'charlene.jackson@enron.com'
p78
sg10
L25L
sg11
L0L
sg12
F0.09689922480620156
sg13
L0L
sg14
L117L
sg15
L0L
sg16
L56L
sg17
L2435L
sg18
L0L
sg19
L161L
sg20
L250000L
sg21
L725735L
sg22
L19L
sg23
L540672L
sg24
L288558L
sg25
L551174L
sg26
F0.3392857142857143
sg27
L185063L
ssS'WESTFAHL RICHARD K'
p79
(dp80
g3
L0L
sg4
L0L
sg5
L51870L
sg6
I00
sg7
L256191L
sg8
S'dick.westfahl@enron.com'
p81
sg10
L0L
sg11
L-10800L
sg12
F0.0
sg13
L0L
sg14
L0L
sg15
L0L
sg16
L0L
sg17
L401130L
sg18
L0L
sg19
L0L
sg20
L0L
sg21
L384930L
sg22
L0L
sg23
L384930L
sg24
L63744L
sg25
L762135L
sg26
F0.0
sg27
L0L
ssS'WALTERS GARETH W'
p82
(dp83
g3
L0L
sg4
L53625L
sg5
L33785L
sg6
I00
sg7
L0L
sg8
I0
sg10
L0L
sg11
L0L
sg12
F0.0
sg13
L0L
sg14
L0L
sg15
L0L
sg16
L0L
sg17
L0L
sg18
L0L
sg19
L0L
sg20
L0L
sg21
L1030329L
sg22
L0L
sg23
L0L
sg24
L0L
sg25
L87410L
sg26
F0.0
sg27
L1030329L
ssS'WALLS JR ROBERT H'
p84
(dp85
g3
L671L
sg4
L0L
sg5
L50936L
sg6
I00
sg7
L540751L
sg8
S'rob.walls@enron.com'
p86
sg10
L17L
sg11
L0L
sg12
F0.02533532041728763
sg13
L0L
sg14
L215L
sg15
L0L
sg16
L146L
sg17
L2L
sg18
L0L
sg19
L232L
sg20
L850000L
sg21
L5898997L
sg22
L0L
sg23
L1552453L
sg24
L357091L
sg25
L1798780L
sg26
F0.0
sg27
L4346544L
ssS'KITCHEN LOUISE'
p87
(dp88
g3
L8305L
sg4
L0L
sg5
L5774L
sg6
I00
sg7
L0L
sg8
S'louise.kitchen@enron.com'
p89
sg10
L251L
sg11
L0L
sg12
F0.030222757375075255
sg13
L0L
sg14
L3669L
sg15
L0L
sg16
L1728L
sg17
L93925L
sg18
L0L
sg19
L4114L
sg20
L3100000L
sg21
L547143L
sg22
L194L
sg23
L466101L
sg24
L271442L
sg25
L3471141L
sg26
F0.11226851851851852
sg27
L81042L
ssS'CHAN RONNIE'
p90
(dp91
g3
L0L
sg4
L0L
sg5
L0L
sg6
I00
sg7
L0L
sg8
I0
sg10
L0L
sg11
L-98784L
sg12
F0.0
sg13
L-32460L
sg14
L0L
sg15
L0L
sg16
L0L
sg17
L0L
sg18
L98784L
sg19
L0L
sg20
L0L
sg21
L0L
sg22
L0L
sg23
L32460L
sg24
L0L
sg25
L0L
sg26
F0.0
sg27
L0L
ssS'BELFER ROBERT'
p92
(dp93
g3
L0L
sg4
L-102500L
sg5
L0L
sg6
I00
sg7
L0L
sg8
I0
sg10
L0L
sg11
L0L
sg12
F0.0
sg13
L44093L
sg14
L0L
sg15
L0L
sg16
L0L
sg17
L0L
sg18
L3285L
sg19
L0L
sg20
L0L
sg21
L-44093L
sg22
L0L
sg23
L0L
sg24
L0L
sg25
L102500L
sg26
F0.0
sg27
L3285L
ssS'SHANKMAN JEFFREY A'
p94
(dp95
g3
L3221L
sg4
L0L
sg5
L178979L
sg6
I00
sg7
L554422L
sg8
S'jeffrey.shankman@enron.com'
p96
sg10
L94L
sg11
L0L
sg12
F0.029183483390251473
sg13
L0L
sg14
L1730L
sg15
L0L
sg16
L2681L
sg17
L1191L
sg18
L0L
sg19
L1907L
sg20
L2000000L
sg21
L2072035L
sg22
L83L
sg23
L630137L
sg24
L304110L
sg25
L3038702L
sg26
F0.030958597538232
sg27
L1441898L
ssS'WODRASKA JOHN'
p97
(dp98
g3
L0L
sg4
L0L
sg5
L0L
sg6
I00
sg7
L0L
sg8
S'john.wodraska@enron.com'
p99
sg10
L0L
sg11
L0L
sg12
F0.0
sg13
L0L
sg14
L0L
sg15
L0L
sg16
L0L
sg17
L189583L
sg18
L0L
sg19
L0L
sg20
L0L
sg21
L0L
sg22
L0L
sg23
L0L
sg24
L0L
sg25
L189583L
sg26
F0.0
sg27
L0L
ssS'BERGSIEKER RICHARD P'
p100
(dp101
g3
L383L
sg4
L0L
sg5
L59175L
sg6
I00
sg7
L180250L
sg8
S'rick.bergsieker@enron.com'
p102
sg10
L4L
sg11
L-485813L
sg12
F0.010443864229765013
sg13
L0L
sg14
L233L
sg15
L0L
sg16
L59L
sg17
L427316L
sg18
L0L
sg19
L237L
sg20
L250000L
sg21
L659249L
sg22
L0L
sg23
L659249L
sg24
L187922L
sg25
L618850L
sg26
F0.0
sg27
L0L
ssS'URQUHART JOHN A'
p103
(dp104
g3
L0L
sg4
L0L
sg5
L228656L
sg6
I00
sg7
L0L
sg8
I0
sg10
L0L
sg11
L-36666L
sg12
F0.0
sg13
L0L
sg14
L0L
sg15
L0L
sg16
L0L
sg17
L0L
sg18
L36666L
sg19
L0L
sg20
L0L
sg21
L0L
sg22
L0L
sg23
L0L
sg24
L0L
sg25
L228656L
sg26
F0.0
sg27
L0L
ssS'BIBI PHILIPPE A'
p105
(dp106
g3
L1607L
sg4
L0L
sg5
L38559L
sg6
I00
sg7
L369721L
sg8
S'philippe.bibi@enron.com'
p107
sg10
L23L
sg11
L0L
sg12
F0.01431238332296204
sg13
L0L
sg14
L1336L
sg15
L0L
sg16
L40L
sg17
L425688L
sg18
L0L
sg19
L1367L
sg20
L1000000L
sg21
L1843816L
sg22
L8L
sg23
L378082L
sg24
L213625L
sg25
L2047593L
sg26
F0.2
sg27
L1465734L
ssS'RIEKER PAULA H'
p108
(dp109
g3
L1328L
sg4
L214678L
sg5
L33271L
sg6
I01
sg7
L0L
sg8
S'paula.rieker@enron.com'
p110
sg10
L35L
sg11
L-100000L
sg12
F0.02635542168674699
sg13
L0L
sg14
L1258L
sg15
L0L
sg16
L82L
sg17
L1950L
sg18
L0L
sg19
L1341L
sg20
L700000L
sg21
L1918887L
sg22
L48L
sg23
L283649L
sg24
L249201L
sg25
L1099100L
sg26
F0.5853658536585366
sg27
L1635238L
ssS'WHALEY DAVID A'
p111
(dp112
g3
L0L
sg4
L0L
sg5
L0L
sg6
I00
sg7
L0L
sg8
I0
sg10
L0L
sg11
L0L
sg12
F0.0
sg13
L0L
sg14
L0L
sg15
L0L
sg16
L0L
sg17
L0L
sg18
L0L
sg19
L0L
sg20
L0L
sg21
L98718L
sg22
L0L
sg23
L0L
sg24
L0L
sg25
L0L
sg26
F0.0
sg27
L98718L
ssS'BECK SALLY W'
p113
(dp114
g3
L7315L
sg4
L0L
sg5
L37172L
sg6
I00
sg7
L0L
sg8
S'sally.beck@enron.com'
p115
sg10
L144L
sg11
L0L
sg12
F0.01968557758031442
sg13
L0L
sg14
L2639L
sg15
L0L
sg16
L4343L
sg17
L566L
sg18
L0L
sg19
L3169L
sg20
L700000L
sg21
L126027L
sg22
L386L
sg23
L126027L
sg24
L231330L
sg25
L969068L
sg26
F0.08887865530739121
sg27
L0L
ssS'HAUG DAVID L'
p116
(dp117
g3
L573L
sg4
L0L
sg5
L475L
sg6
I00
sg7
L0L
sg8
S'david.haug@enron.com'
p118
sg10
L4L
sg11
L0L
sg12
F0.006980802792321117
sg13
L0L
sg14
L471L
sg15
L0L
sg16
L19L
sg17
L0L
sg18
L0L
sg19
L482L
sg20
L0L
sg21
L2217299L
sg22
L7L
sg23
L2217299L
sg24
L0L
sg25
L475L
sg26
F0.3684210526315789
sg27
L0L
ssS'ECHOLS JOHN B'
p119
(dp120
g3
L0L
sg4
L0L
sg5
L21530L
sg6
I00
sg7
L2234774L
sg8
S'john.echols@enron.com'
p121
sg10
L0L
sg11
L0L
sg12
F0.0
sg13
L0L
sg14
L0L
sg15
L0L
sg16
L0L
sg17
L53775L
sg18
L0L
sg19
L0L
sg20
L200000L
sg21
L1008941L
sg22
L0L
sg23
L407503L
sg24
L182245L
sg25
L2692324L
sg26
F0.0
sg27
L601438L
ssS'MENDELSOHN JOHN'
p122
(dp123
g3
L0L
sg4
L0L
sg5
L148L
sg6
I00
sg7
L0L
sg8
I0
sg10
L0L
sg11
L-103750L
sg12
F0.0
sg13
L0L
sg14
L0L
sg15
L0L
sg16
L0L
sg17
L0L
sg18
L103750L
sg19
L0L
sg20
L0L
sg21
L0L
sg22
L0L
sg23
L0L
sg24
L0L
sg25
L148L
sg26
F0.0
sg27
L0L
ssS'HICKERSON GARY J'
p124
(dp125
g3
L1320L
sg4
L0L
sg5
L98849L
sg6
I00
sg7
L69223L
sg8
S'gary.hickerson@enron.com'
p126
sg10
L40L
sg11
L0L
sg12
F0.030303030303030304
sg13
L0L
sg14
L900L
sg15
L0L
sg16
L27L
sg17
L1936L
sg18
L0L
sg19
L941L
sg20
L1700000L
sg21
L441096L
sg22
L1L
sg23
L441096L
sg24
L211788L
sg25
L2081796L
sg26
F0.037037037037037035
sg27
L0L
ssS'CLINE KENNETH W'
p127
(dp128
g3
L0L
sg4
L0L
sg5
L0L
sg6
I00
sg7
L0L
sg8
I0
sg10
L0L
sg11
L0L
sg12
F0.0
sg13
L-472568L
sg14
L0L
sg15
L0L
sg16
L0L
sg17
L0L
sg18
L0L
sg19
L0L
sg20
L0L
sg21
L189518L
sg22
L0L
sg23
L662086L
sg24
L0L
sg25
L0L
sg26
F0.0
sg27
L0L
ssS'LEWIS RICHARD'
p129
(dp130
g3
L952L
sg4
L0L
sg5
L0L
sg6
I00
sg7
L0L
sg8
S'richard.lewis@enron.com'
p131
sg10
L10L
sg11
L0L
sg12
F0.01050420168067227
sg13
L0L
sg14
L739L
sg15
L0L
sg16
L26L
sg17
L0L
sg18
L0L
sg19
L749L
sg20
L0L
sg21
L850477L
sg22
L0L
sg23
L0L
sg24
L0L
sg25
L0L
sg26
F0.0
sg27
L850477L
ssS'HAYES ROBERT E'
p132
(dp133
g3
L504L
sg4
L7961L
sg5
L0L
sg6
I00
sg7
L0L
sg8
S'robert.hayes@enron.com'
p134
sg10
L16L
sg11
L0L
sg12
F0.031746031746031744
sg13
L0L
sg14
L50L
sg15
L0L
sg16
L12L
sg17
L0L
sg18
L0L
sg19
L66L
sg20
L0L
sg21
L151418L
sg22
L0L
sg23
L151418L
sg24
L0L
sg25
L7961L
sg26
F0.0
sg27
L0L
ssS'KOPPER MICHAEL J'
p135
(dp136
g3
L0L
sg4
L0L
sg5
L118134L
sg6
I01
sg7
L602671L
sg8
S'michael.kopper@enron.com'
p137
sg10
L0L
sg11
L0L
sg12
F0.0
sg13
L0L
sg14
L0L
sg15
L0L
sg16
L0L
sg17
L907502L
sg18
L0L
sg19
L0L
sg20
L800000L
sg21
L985032L
sg22
L0L
sg23
L985032L
sg24
L224305L
sg25
L2652612L
sg26
F0.0
sg27
L0L
ssS'LEFF DANIEL P'
p138
(dp139
g3
L2822L
sg4
L0L
sg5
L0L
sg6
I00
sg7
L1387399L
sg8
S'dan.leff@enron.com'
p140
sg10
L67L
sg11
L0L
sg12
F0.02374202693125443
sg13
L0L
sg14
L2672L
sg15
L0L
sg16
L63L
sg17
L3083L
sg18
L0L
sg19
L2753L
sg20
L1000000L
sg21
L360528L
sg22
L14L
sg23
L360528L
sg24
L273746L
sg25
L2664228L
sg26
F0.2222222222222222
sg27
L0L
ssS'LAVORATO JOHN J'
p141
(dp142
g3
L7259L
sg4
L0L
sg5
L49537L
sg6
I00
sg7
L2035380L
sg8
S'john.lavorato@enron.com'
p143
sg10
L528L
sg11
L0L
sg12
F0.07273729163796666
sg13
L0L
sg14
L3962L
sg15
L0L
sg16
L2585L
sg17
L1552L
sg18
L0L
sg19
L4901L
sg20
L8000000L
sg21
L5167144L
sg22
L411L
sg23
L1008149L
sg24
L339288L
sg25
L10425757L
sg26
F0.15899419729206962
sg27
L4158995L
ssS'BERBERIAN DAVID'
p144
(dp145
g3
L0L
sg4
L0L
sg5
L11892L
sg6
I00
sg7
L0L
sg8
S'david.berberian@enron.com'
p146
sg10
L0L
sg11
L0L
sg12
F0.0
sg13
L0L
sg14
L0L
sg15
L0L
sg16
L0L
sg17
L0L
sg18
L0L
sg19
L0L
sg20
L0L
sg21
L2493616L
sg22
L0L
sg23
L869220L
sg24
L216582L
sg25
L228474L
sg26
F0.0
sg27
L1624396L
ssS'DETMERING TIMOTHY J'
p147
(dp148
g3
L0L
sg4
L875307L
sg5
L52255L
sg6
I00
sg7
L415657L
sg8
S'timothy.detmering@enron.com'
p149
sg10
L0L
sg11
L-775241L
sg12
F0.0
sg13
L-315068L
sg14
L0L
sg15
L0L
sg16
L0L
sg17
L1105L
sg18
L0L
sg19
L0L
sg20
L425000L
sg21
L2027865L
sg22
L0L
sg23
L315068L
sg24
L210500L
sg25
L1204583L
sg26
F0.0
sg27
L2027865L
ssS'WAKEHAM JOHN'
p150
(dp151
g3
L0L
sg4
L0L
sg5
L103773L
sg6
I00
sg7
L0L
sg8
I0
sg10
L0L
sg11
L0L
sg12
F0.0
sg13
L0L
sg14
L0L
sg15
L0L
sg16
L0L
sg17
L0L
sg18
L109298L
sg19
L0L
sg20
L0L
sg21
L0L
sg22
L0L
sg23
L0L
sg24
L0L
sg25
L213071L
sg26
F0.0
sg27
L0L
ssS'POWERS WILLIAM'
p152
(dp153
g3
L653L
sg4
L0L
sg5
L0L
sg6
I00
sg7
L0L
sg8
S'ken.powers@enron.com'
p154
sg10
L0L
sg11
L-17500L
sg12
F0.0
sg13
L0L
sg14
L12L
sg15
L0L
sg16
L26L
sg17
L0L
sg18
L17500L
sg19
L12L
sg20
L0L
sg21
L0L
sg22
L0L
sg23
L0L
sg24
L0L
sg25
L0L
sg26
F0.0
sg27
L0L
ssS'GOLD JOSEPH'
p155
(dp156
g3
L0L
sg4
L0L
sg5
L0L
sg6
I00
sg7
L304805L
sg8
S'joe.gold@enron.com'
p157
sg10
L0L
sg11
L0L
sg12
F0.0
sg13
L0L
sg14
L0L
sg15
L0L
sg16
L0L
sg17
L819288L
sg18
L0L
sg19
L0L
sg20
L750000L
sg21
L877611L
sg22
L0L
sg23
L441096L
sg24
L272880L
sg25
L2146973L
sg26
F0.0
sg27
L436515L
ssS'BANNANTINE JAMES M'
p158
(dp159
g3
L566L
sg4
L0L
sg5
L56301L
sg6
I00
sg7
L0L
sg8
S'james.bannantine@enron.com'
p160
sg10
L39L
sg11
L-5104L
sg12
F0.06890459363957598
sg13
L-560222L
sg14
L465L
sg15
L0L
sg16
L29L
sg17
L864523L
sg18
L0L
sg19
L504L
sg20
L0L
sg21
L5243487L
sg22
L0L
sg23
L1757552L
sg24
L477L
sg25
L916197L
sg26
F0.0
sg27
L4046157L
ssS'DUNCAN JOHN H'
p161
(dp162
g3
L0L
sg4
L0L
sg5
L0L
sg6
I00
sg7
L0L
sg8
I0
sg10
L0L
sg11
L-25000L
sg12
F0.0
sg13
L0L
sg14
L0L
sg15
L0L
sg16
L0L
sg17
L0L
sg18
L102492L
sg19
L0L
sg20
L0L
sg21
L371750L
sg22
L0L
sg23
L0L
sg24
L0L
sg25
L77492L
sg26
F0.0
sg27
L371750L
ssS'SHAPIRO RICHARD S'
p163
(dp164
g3
L15149L
sg4
L0L
sg5
L137767L
sg6
I00
sg7
L0L
sg8
S'richard.shapiro@enron.com'
p165
sg10
L74L
sg11
L0L
sg12
F0.0048848108786058485
sg13
L0L
sg14
L4527L
sg15
L0L
sg16
L1215L
sg17
L705L
sg18
L0L
sg19
L4666L
sg20
L650000L
sg21
L987001L
sg22
L65L
sg23
L379164L
sg24
L269076L
sg25
L1057548L
sg26
F0.053497942386831275
sg27
L607837L
ssS'SHERRIFF JOHN R'
p166
(dp167
g3
L3187L
sg4
L0L
sg5
L0L
sg6
I00
sg7
L554422L
sg8
S'john.sherriff@enron.com'
p168
sg10
L28L
sg11
L0L
sg12
F0.008785691873235017
sg13
L0L
sg14
L2103L
sg15
L0L
sg16
L92L
sg17
L1852186L
sg18
L0L
sg19
L2154L
sg20
L1500000L
sg21
L3128982L
sg22
L23L
sg23
L1293424L
sg24
L428780L
sg25
L4335388L
sg26
F0.25
sg27
L1835558L
ssS'SHELBY REX'
p169
(dp170
g3
L225L
sg4
L0L
sg5
L22884L
sg6
I01
sg7
L0L
sg8
S'rex.shelby@enron.com'
p171
sg10
L13L
sg11
L-4167L
sg12
F0.057777777777777775
sg13
L0L
sg14
L91L
sg15
L0L
sg16
L39L
sg17
L1573324L
sg18
L0L
sg19
L118L
sg20
L200000L
sg21
L2493616L
sg22
L14L
sg23
L869220L
sg24
L211844L
sg25
L2003885L
sg26
F0.358974358974359
sg27
L1624396L
ssS'LEMAISTRE CHARLES'
p172
(dp173
g3
L0L
sg4
L0L
sg5
L0L
sg6
I00
sg7
L0L
sg8
I0
sg10
L0L
sg11
L-25000L
sg12
F0.0
sg13
L0L
sg14
L0L
sg15
L0L
sg16
L0L
sg17
L0L
sg18
L112492L
sg19
L0L
sg20
L0L
sg21
L412878L
sg22
L0L
sg23
L0L
sg24
L0L
sg25
L87492L
sg26
F0.0
sg27
L412878L
ssS'DEFFNER JOSEPH M'
p174
(dp175
g3
L714L
sg4
L0L
sg5
L41626L
sg6
I00
sg7
L335349L
sg8
S'joseph.deffner@enron.com'
p176
sg10
L115L
sg11
L0L
sg12
F0.16106442577030813
sg13
L0L
sg14
L552L
sg15
L0L
sg16
L74L
sg17
L25553L
sg18
L0L
sg19
L671L
sg20
L600000L
sg21
L159211L
sg22
L4L
sg23
L141833L
sg24
L206121L
sg25
L1208649L
sg26
F0.05405405405405406
sg27
L17378L
ssS'KISHKILL JOSEPH G'
p177
(dp178
g3
L0L
sg4
L0L
sg5
L116335L
sg6
I00
sg7
L0L
sg8
S'joe.kishkill@enron.com'
p179
sg10
L0L
sg11
L-51042L
sg12
F0.0
sg13
L0L
sg14
L0L
sg15
L0L
sg16
L0L
sg17
L465357L
sg18
L0L
sg19
L0L
sg20
L0L
sg21
L1034346L
sg22
L0L
sg23
L1034346L
sg24
L174246L
sg25
L704896L
sg26
F0.0
sg27
L0L
ssS'WHALLEY LAWRENCE G'
p180
(dp181
g3
L6019L
sg4
L0L
sg5
L57838L
sg6
I00
sg7
L808346L
sg8
S'greg.whalley@enron.com'
p182
sg10
L186L
sg11
L0L
sg12
F0.03090214321315833
sg13
L0L
sg14
L3920L
sg15
L0L
sg16
L556L
sg17
L301026L
sg18
L0L
sg19
L4130L
sg20
L3000000L
sg21
L6079137L
sg22
L24L
sg23
L2796177L
sg24
L510364L
sg25
L4677574L
sg26
F0.04316546762589928
sg27
L3282960L
ssS'PIRO JIM'
p183
(dp184
g3
L58L
sg4
L0L
sg5
L0L
sg6
I00
sg7
L0L
sg8
S'jim.piro@enron.com'
p185
sg10
L0L
sg11
L0L
sg12
F0.0
sg13
L0L
sg14
L3L
sg15
L0L
sg16
L16L
sg17
L0L
sg18
L0L
sg19
L4L
sg20
L0L
sg21
L47304L
sg22
L1L
sg23
L47304L
sg24
L0L
sg25
L0L
sg26
F0.0625
sg27
L0L
ssS'MCCONNELL MICHAEL S'
p186
(dp187
g3
L3329L
sg4
L0L
sg5
L81364L
sg6
I00
sg7
L554422L
sg8
S'mike.mcconnell@enron.com'
p188
sg10
L92L
sg11
L0L
sg12
F0.02763592670471613
sg13
L0L
sg14
L2189L
sg15
L0L
sg16
L2742L
sg17
L540L
sg18
L0L
sg19
L2475L
sg20
L1100000L
sg21
L3101279L
sg22
L194L
sg23
L1478269L
sg24
L365038L
sg25
L2101364L
sg26
F0.07075127644055434
sg27
L1623010L
ssS'DELAINEY DAVID W'
p189
(dp190
g3
L3093L
sg4
L0L
sg5
L86174L
sg6
I01
sg7
L1294981L
sg8
S'david.delainey@enron.com'
p191
sg10
L66L
sg11
L0L
sg12
F0.02133850630455868
sg13
L0L
sg14
L2097L
sg15
L0L
sg16
L3069L
sg17
L1661L
sg18
L0L
sg19
L2772L
sg20
L3000000L
sg21
L3614261L
sg22
L609L
sg23
L1323148L
sg24
L365163L
sg25
L4747979L
sg26
F0.198435972629521
sg27
L2291113L
ssS'SULLIVAN-SHAKLOVITZ COLLEEN'
p192
(dp193
g3
L0L
sg4
L181993L
sg5
L0L
sg6
I00
sg7
L554422L
sg8
I0
sg10
L0L
sg11
L0L
sg12
F0.0
sg13
L0L
sg14
L0L
sg15
L0L
sg16
L0L
sg17
L162L
sg18
L0L
sg19
L0L
sg20
L100000L
sg21
L1362375L
sg22
L0L
sg23
L0L
sg24
L162779L
sg25
L999356L
sg26
F0.0
sg27
L1362375L
ssS'WROBEL BRUCE'
p194
(dp195
g3
L0L
sg4
L0L
sg5
L0L
sg6
I00
sg7
L0L
sg8
I0
sg10
L0L
sg11
L0L
sg12
F0.0
sg13
L0L
sg14
L0L
sg15
L0L
sg16
L0L
sg17
L0L
sg18
L0L
sg19
L0L
sg20
L0L
sg21
L139130L
sg22
L0L
sg23
L0L
sg24
L0L
sg25
L0L
sg26
F0.0
sg27
L139130L
ssS'LINDHOLM TOD A'
p196
(dp197
g3
L0L
sg4
L204075L
sg5
L57727L
sg6
I00
sg7
L175000L
sg8
S'tod.lindholm@enron.com'
p198
sg10
L0L
sg11
L0L
sg12
F0.0
sg13
L0L
sg14
L0L
sg15
L0L
sg16
L0L
sg17
L2630L
sg18
L0L
sg19
L0L
sg20
L200000L
sg21
L3064208L
sg22
L0L
sg23
L514847L
sg24
L236457L
sg25
L875889L
sg26
F0.0
sg27
L2549361L
ssS'MEYER JEROME J'
p199
(dp200
g3
L0L
sg4
L0L
sg5
L2151L
sg6
I00
sg7
L0L
sg8
I0
sg10
L0L
sg11
L-38346L
sg12
F0.0
sg13
L0L
sg14
L0L
sg15
L0L
sg16
L0L
sg17
L0L
sg18
L38346L
sg19
L0L
sg20
L0L
sg21
L0L
sg22
L0L
sg23
L0L
sg24
L0L
sg25
L2151L
sg26
F0.0
sg27
L0L
ssS'LAY KENNETH L'
p201
(dp202
g3
L4273L
sg4
L202911L
sg5
L99832L
sg6
I01
sg7
L3600000L
sg8
S'kenneth.lay@enron.com'
p203
sg10
L123L
sg11
L-300000L
sg12
F0.028785396676807865
sg13
L0L
sg14
L2411L
sg15
L81525000L
sg16
L36L
sg17
L10359729L
sg18
L0L
sg19
L2550L
sg20
L7000000L
sg21
L49110078L
sg22
L16L
sg23
L14761694L
sg24
L1072321L
sg25
L103559793L
sg26
F0.4444444444444444
sg27
L34348384L
ssS'BUTTS ROBERT H'
p204
(dp205
g3
L0L
sg4
L0L
sg5
L9410L
sg6
I00
sg7
L175000L
sg8
S'bob.butts@enron.com'
p206
sg10
L0L
sg11
L-75000L
sg12
F0.0
sg13
L0L
sg14
L0L
sg15
L0L
sg16
L0L
sg17
L150656L
sg18
L0L
sg19
L0L
sg20
L750000L
sg21
L417619L
sg22
L0L
sg23
L417619L
sg24
L261516L
sg25
L1271582L
sg26
F0.0
sg27
L0L
ssS'OLSON CINDY K'
p207
(dp208
g3
L1184L
sg4
L77716L
sg5
L63791L
sg6
I00
sg7
L100000L
sg8
S'cindy.olson@enron.com'
p209
sg10
L20L
sg11
L0L
sg12
F0.016891891891891893
sg13
L0L
sg14
L856L
sg15
L0L
sg16
L52L
sg17
L972L
sg18
L0L
sg19
L891L
sg20
L750000L
sg21
L2606763L
sg22
L15L
sg23
L969729L
sg24
L329078L
sg25
L1321557L
sg26
F0.28846153846153844
sg27
L1637034L
ssS'MCDONALD REBECCA'
p210
(dp211
g3
L894L
sg4
L0L
sg5
L0L
sg6
I00
sg7
L0L
sg8
S'rebecca.mcdonald@enron.com'
p212
sg10
L54L
sg11
L0L
sg12
F0.06040268456375839
sg13
L0L
sg14
L720L
sg15
L0L
sg16
L13L
sg17
L0L
sg18
L0L
sg19
L775L
sg20
L0L
sg21
L1691366L
sg22
L1L
sg23
L934065L
sg24
L0L
sg25
L0L
sg26
F0.07692307692307693
sg27
L757301L
ssS'CUMBERLAND MICHAEL S'
p213
(dp214
g3
L0L
sg4
L0L
sg5
L22344L
sg6
I00
sg7
L275000L
sg8
I0
sg10
L0L
sg11
L0L
sg12
F0.0
sg13
L0L
sg14
L0L
sg15
L0L
sg16
L0L
sg17
L713L
sg18
L0L
sg19
L0L
sg20
L325000L
sg21
L207940L
sg22
L0L
sg23
L207940L
sg24
L184899L
sg25
L807956L
sg26
F0.0
sg27
L0L
ssS'GAHN ROBERT S'
p215
(dp216
g3
L0L
sg4
L73122L
sg5
L50080L
sg6
I00
sg7
L0L
sg8
I0
sg10
L0L
sg11
L-1042L
sg12
F0.0
sg13
L0L
sg14
L0L
sg15
L0L
sg16
L0L
sg17
L76547L
sg18
L0L
sg19
L0L
sg20
L509870L
sg21
L318607L
sg22
L0L
sg23
L235370L
sg24
L192008L
sg25
L900585L
sg26
F0.0
sg27
L83237L
ssS'BADUM JAMES P'
p217
(dp218
g3
L0L
sg4
L178980L
sg5
L3486L
sg6
I00
sg7
L0L
sg8
I0
sg10
L0L
sg11
L0L
sg12
F0.0
sg13
L0L
sg14
L0L
sg15
L0L
sg16
L0L
sg17
L0L
sg18
L0L
sg19
L0L
sg20
L0L
sg21
L257817L
sg22
L0L
sg23
L0L
sg24
L0L
sg25
L182466L
sg26
F0.0
sg27
L257817L
ssS'HERMANN ROBERT J'
p219
(dp220
g3
L0L
sg4
L0L
sg5
L48357L
sg6
I00
sg7
L150000L
sg8
S'robert.hermann@enron.com'
p221
sg10
L0L
sg11
L-280000L
sg12
F0.0
sg13
L0L
sg14
L0L
sg15
L0L
sg16
L0L
sg17
L416441L
sg18
L0L
sg19
L0L
sg20
L700000L
sg21
L668132L
sg22
L0L
sg23
L480632L
sg24
L262663L
sg25
L1297461L
sg26
F0.0
sg27
L187500L
ssS'FALLON JAMES B'
p222
(dp223
g3
L1755L
sg4
L0L
sg5
L95924L
sg6
I00
sg7
L374347L
sg8
S'jim.fallon@enron.com'
p224
sg10
L42L
sg11
L0L
sg12
F0.023931623931623933
sg13
L0L
sg14
L1604L
sg15
L0L
sg16
L75L
sg17
L401481L
sg18
L0L
sg19
L1683L
sg20
L2500000L
sg21
L2332399L
sg22
L37L
sg23
L1392142L
sg24
L304588L
sg25
L3676340L
sg26
F0.49333333333333335
sg27
L940257L
ssS'GATHMANN WILLIAM D'
p225
(dp226
g3
L0L
sg4
L0L
sg5
L0L
sg6
I00
sg7
L0L
sg8
I0
sg10
L0L
sg11
L0L
sg12
F0.0
sg13
L-72419L
sg14
L0L
sg15
L0L
sg16
L0L
sg17
L0L
sg18
L0L
sg19
L0L
sg20
L0L
sg21
L1945360L
sg22
L0L
sg23
L264013L
sg24
L0L
sg25
L0L
sg26
F0.0
sg27
L1753766L
ssS'HORTON STANLEY C'
p227
(dp228
g3
L2350L
sg4
L3131860L
sg5
L0L
sg6
I00
sg7
L0L
sg8
S'stanley.horton@enron.com'
p229
sg10
L44L
sg11
L0L
sg12
F0.01872340425531915
sg13
L0L
sg14
L1074L
sg15
L0L
sg16
L1073L
sg17
L0L
sg18
L0L
sg19
L1133L
sg20
L0L
sg21
L7256648L
sg22
L15L
sg23
L2046079L
sg24
L0L
sg25
L3131860L
sg26
F0.013979496738117428
sg27
L5210569L
ssS'BOWEN JR RAYMOND M'
p230
(dp231
g3
L1858L
sg4
L0L
sg5
L65907L
sg6
I01
sg7
L974293L
sg8
S'raymond.bowen@enron.com'
p232
sg10
L140L
sg11
L-833L
sg12
F0.07534983853606028
sg13
L0L
sg14
L1593L
sg15
L0L
sg16
L27L
sg17
L1621L
sg18
L0L
sg19
L1748L
sg20
L1350000L
sg21
L252055L
sg22
L15L
sg23
L252055L
sg24
L278601L
sg25
L2669589L
sg26
F0.5555555555555556
sg27
L0L
ssS'GILLIS JOHN'
p233
(dp234
g3
L0L
sg4
L0L
sg5
L0L
sg6
I00
sg7
L0L
sg8
I0
sg10
L0L
sg11
L0L
sg12
F0.0
sg13
L0L
sg14
L0L
sg15
L0L
sg16
L0L
sg17
L0L
sg18
L0L
sg19
L0L
sg20
L0L
sg21
L85641L
sg22
L0L
sg23
L75838L
sg24
L0L
sg25
L0L
sg26
F0.0
sg27
L9803L
ssS'FITZGERALD JAY L'
p235
(dp236
g3
L936L
sg4
L0L
sg5
L23870L
sg6
I00
sg7
L556416L
sg8
S'jay.fitzgerald@enron.com'
p237
sg10
L1L
sg11
L0L
sg12
F0.0010683760683760685
sg13
L0L
sg14
L723L
sg15
L0L
sg16
L16L
sg17
L285414L
sg18
L0L
sg19
L732L
sg20
L350000L
sg21
L1621236L
sg22
L8L
sg23
L956775L
sg24
L199157L
sg25
L1414857L
sg26
F0.5
sg27
L664461L
ssS'MORAN MICHAEL P'
p238
(dp239
g3
L672L
sg4
L0L
sg5
L0L
sg6
I00
sg7
L0L
sg8
S'michael.moran@enron.com'
p240
sg10
L0L
sg11
L0L
sg12
F0.0
sg13
L0L
sg14
L127L
sg15
L0L
sg16
L19L
sg17
L0L
sg18
L0L
sg19
L127L
sg20
L0L
sg21
L221141L
sg22
L0L
sg23
L161602L
sg24
L0L
sg25
L0L
sg26
F0.0
sg27
L59539L
ssS'REDMOND BRIAN L'
p241
(dp242
g3
L1671L
sg4
L0L
sg5
L14689L
sg6
I00
sg7
L0L
sg8
S'brian.redmond@enron.com'
p243
sg10
L204L
sg11
L0L
sg12
F0.12208258527827648
sg13
L0L
sg14
L1063L
sg15
L0L
sg16
L221L
sg17
L0L
sg18
L0L
sg19
L1316L
sg20
L0L
sg21
L7890324L
sg22
L49L
sg23
L381285L
sg24
L96840L
sg25
L111529L
sg26
F0.22171945701357465
sg27
L7509039L
ssS'BAZELIDES PHILIP J'
p244
(dp245
g3
L0L
sg4
L684694L
sg5
L0L
sg6
I00
sg7
L93750L
sg8
I0
sg10
L0L
sg11
L0L
sg12
F0.0
sg13
L0L
sg14
L0L
sg15
L0L
sg16
L0L
sg17
L874L
sg18
L0L
sg19
L0L
sg20
L0L
sg21
L1599641L
sg22
L0L
sg23
L0L
sg24
L80818L
sg25
L860136L
sg26
F0.0
sg27
L1599641L
ssS'BELDEN TIMOTHY N'
p246
(dp247
g3
L7991L
sg4
L2144013L
sg5
L17355L
sg6
I01
sg7
L0L
sg8
S'tim.belden@enron.com'
p248
sg10
L228L
sg11
L-2334434L
sg12
F0.028532098610937303
sg13
L0L
sg14
L5521L
sg15
L0L
sg16
L484L
sg17
L210698L
sg18
L0L
sg19
L5857L
sg20
L5249999L
sg21
L1110705L
sg22
L108L
sg23
L157569L
sg24
L213999L
sg25
L5501630L
sg26
F0.2231404958677686
sg27
L953136L
ssS'DIMICHELE RICHARD G'
p249
(dp250
g3
L0L
sg4
L0L
sg5
L35812L
sg6
I00
sg7
L694862L
sg8
S'richard.dimichele@enron.com'
p251
sg10
L0L
sg11
L0L
sg12
F0.0
sg13
L0L
sg14
L0L
sg15
L0L
sg16
L0L
sg17
L374689L
sg18
L0L
sg19
L0L
sg20
L1000000L
sg21
L8317782L
sg22
L0L
sg23
L126027L
sg24
L262788L
sg25
L2368151L
sg26
F0.0
sg27
L8191755L
ssS'DURAN WILLIAM D'
p252
(dp253
g3
L904L
sg4
L0L
sg5
L25785L
sg6
I00
sg7
L1105218L
sg8
S'w.duran@enron.com'
p254
sg10
L106L
sg11
L0L
sg12
F0.1172566371681416
sg13
L0L
sg14
L599L
sg15
L0L
sg16
L12L
sg17
L1568L
sg18
L0L
sg19
L708L
sg20
L750000L
sg21
L1640910L
sg22
L3L
sg23
L189041L
sg24
L210692L
sg25
L2093263L
sg26
F0.25
sg27
L1451869L
ssS'THORN TERENCE H'
p255
(dp256
g3
L266L
sg4
L16586L
sg5
L46145L
sg6
I00
sg7
L200000L
sg8
S'terence.thorn@enron.com'
p257
sg10
L0L
sg11
L0L
sg12
F0.0
sg13
L0L
sg14
L73L
sg15
L0L
sg16
L41L
sg17
L426629L
sg18
L0L
sg19
L73L
sg20
L0L
sg21
L4817796L
sg22
L0L
sg23
L365320L
sg24
L222093L
sg25
L911453L
sg26
F0.0
sg27
L4452476L
ssS'FASTOW ANDREW S'
p258
(dp259
g3
L0L
sg4
L0L
sg5
L55921L
sg6
I01
sg7
L1736055L
sg8
S'andrew.fastow@enron.com'
p260
sg10
L0L
sg11
L-1386055L
sg12
F0.0
sg13
L0L
sg14
L0L
sg15
L0L
sg16
L0L
sg17
L277464L
sg18
L0L
sg19
L0L
sg20
L1300000L
sg21
L1794412L
sg22
L0L
sg23
L1794412L
sg24
L440698L
sg25
L2424083L
sg26
F0.0
sg27
L0L
ssS'FOY JOE'
p261
(dp262
g3
L57L
sg4
L181755L
sg5
L0L
sg6
I00
sg7
L0L
sg8
S'tracy.foy@enron.com'
p263
sg10
L0L
sg11
L0L
sg12
F0.0
sg13
L0L
sg14
L2L
sg15
L0L
sg16
L13L
sg17
L0L
sg18
L0L
sg19
L2L
sg20
L0L
sg21
L343434L
sg22
L0L
sg23
L0L
sg24
L0L
sg25
L181755L
sg26
F0.0
sg27
L343434L
ssS'CALGER CHRISTOPHER F'
p264
(dp265
g3
L2598L
sg4
L0L
sg5
L35818L
sg6
I01
sg7
L375304L
sg8
S'christopher.calger@enron.com'
p266
sg10
L199L
sg11
L-262500L
sg12
F0.07659738260200154
sg13
L0L
sg14
L2188L
sg15
L0L
sg16
L144L
sg17
L486L
sg18
L0L
sg19
L2412L
sg20
L1250000L
sg21
L126027L
sg22
L25L
sg23
L126027L
sg24
L240189L
sg25
L1639297L
sg26
F0.1736111111111111
sg27
L0L
ssS'RICE KENNETH D'
p267
(dp268
g3
L905L
sg4
L0L
sg5
L46950L
sg6
I01
sg7
L1617011L
sg8
S'ken.rice@enron.com'
p269
sg10
L42L
sg11
L-3504386L
sg12
F0.04640883977900553
sg13
L0L
sg14
L864L
sg15
L0L
sg16
L18L
sg17
L174839L
sg18
L0L
sg19
L910L
sg20
L1750000L
sg21
L22542539L
sg22
L4L
sg23
L2748364L
sg24
L420636L
sg25
L505050L
sg26
F0.2222222222222222
sg27
L19794175L
ssS'KAMINSKI WINCENTY J'
p270
(dp271
g3
L4607L
sg4
L0L
sg5
L83585L
sg6
I00
sg7
L323466L
sg8
S'vince.kaminski@enron.com'
p272
sg10
L41L
sg11
L0L
sg12
F0.008899500759713479
sg13
L0L
sg14
L583L
sg15
L0L
sg16
L14368L
sg17
L4669L
sg18
L0L
sg19
L795L
sg20
L400000L
sg21
L976037L
sg22
L171L
sg23
L126027L
sg24
L275101L
sg25
L1086821L
sg26
F0.011901447661469933
sg27
L850010L
ssS'COX DAVID'
p273
(dp274
g3
L102L
sg4
L0L
sg5
L27861L
sg6
I00
sg7
L0L
sg8
S'chip.cox@enron.com'
p275
sg10
L0L
sg11
L-41250L
sg12
F0.0
sg13
L0L
sg14
L71L
sg15
L0L
sg16
L33L
sg17
L494L
sg18
L0L
sg19
L75L
sg20
L800000L
sg21
L495633L
sg22
L4L
sg23
L378082L
sg24
L314288L
sg25
L1101393L
sg26
F0.12121212121212122
sg27
L117551L
ssS'OVERDYKE JR JERE C'
p276
(dp277
g3
L0L
sg4
L0L
sg5
L18834L
sg6
I00
sg7
L135836L
sg8
S'jere.overdyke@enron.com'
p278
sg10
L0L
sg11
L0L
sg12
F0.0
sg13
L0L
sg14
L0L
sg15
L0L
sg16
L0L
sg17
L176L
sg18
L0L
sg19
L0L
sg20
L0L
sg21
L7307594L
sg22
L0L
sg23
L2041016L
sg24
L94941L
sg25
L249787L
sg26
F0.0
sg27
L5266578L
ssS'PEREIRA PAULO V. FERRAZ'
p279
(dp280
g3
L0L
sg4
L0L
sg5
L27942L
sg6
I00
sg7
L0L
sg8
I0
sg10
L0L
sg11
L-101250L
sg12
F0.0
sg13
L0L
sg14
L0L
sg15
L0L
sg16
L0L
sg17
L0L
sg18
L101250L
sg19
L0L
sg20
L0L
sg21
L0L
sg22
L0L
sg23
L0L
sg24
L0L
sg25
L27942L
sg26
F0.0
sg27
L0L
ssS'STABLER FRANK'
p281
(dp282
g3
L0L
sg4
L0L
sg5
L16514L
sg6
I00
sg7
L0L
sg8
S'frank.stabler@enron.com'
p283
sg10
L0L
sg11
L0L
sg12
F0.0
sg13
L0L
sg14
L0L
sg15
L0L
sg16
L0L
sg17
L356071L
sg18
L0L
sg19
L0L
sg20
L500000L
sg21
L511734L
sg22
L0L
sg23
L511734L
sg24
L239502L
sg25
L1112087L
sg26
F0.0
sg27
L0L
ssS'SKILLING JEFFREY K'
p284
(dp285
g3
L3627L
sg4
L0L
sg5
L29336L
sg6
I01
sg7
L1920000L
sg8
S'jeff.skilling@enron.com'
p286
sg10
L88L
sg11
L0L
sg12
F0.0242624758753791
sg13
L0L
sg14
L2042L
sg15
L0L
sg16
L108L
sg17
L22122L
sg18
L0L
sg19
L2160L
sg20
L5600000L
sg21
L26093672L
sg22
L30L
sg23
L6843672L
sg24
L1111258L
sg25
L8682716L
sg26
F0.2777777777777778
sg27
L19250000L
ssS'BLAKE JR. NORMAN P'
p287
(dp288
g3
L0L
sg4
L0L
sg5
L1279L
sg6
I00
sg7
L0L
sg8
I0
sg10
L0L
sg11
L-113784L
sg12
F0.0
sg13
L0L
sg14
L0L
sg15
L0L
sg16
L0L
sg17
L0L
sg18
L113784L
sg19
L0L
sg20
L0L
sg21
L0L
sg22
L0L
sg23
L0L
sg24
L0L
sg25
L1279L
sg26
F0.0
sg27
L0L
ssS'SHERRICK JEFFREY B'
p289
(dp290
g3
L613L
sg4
L0L
sg5
L0L
sg6
I00
sg7
L0L
sg8
S'jeffrey.sherrick@enron.com'
p291
sg10
L39L
sg11
L0L
sg12
F0.0636215334420881
sg13
L0L
sg14
L583L
sg15
L0L
sg16
L25L
sg17
L0L
sg18
L0L
sg19
L640L
sg20
L0L
sg21
L1832468L
sg22
L18L
sg23
L405999L
sg24
L0L
sg25
L0L
sg26
F0.72
sg27
L1426469L
ssS'PRENTICE JAMES'
p292
(dp293
g3
L0L
sg4
L564348L
sg5
L0L
sg6
I00
sg7
L0L
sg8
S'james.prentice@enron.com'
p294
sg10
L0L
sg11
L0L
sg12
F0.0
sg13
L0L
sg14
L0L
sg15
L0L
sg16
L0L
sg17
L0L
sg18
L0L
sg19
L0L
sg20
L0L
sg21
L1095040L
sg22
L0L
sg23
L208809L
sg24
L0L
sg25
L564348L
sg26
F0.0
sg27
L886231L
ssS'GRAY RODNEY'
p295
(dp296
g3
L0L
sg4
L93585L
sg5
L0L
sg6
I00
sg7
L365625L
sg8
I0
sg10
L0L
sg11
L0L
sg12
F0.0
sg13
L0L
sg14
L0L
sg15
L0L
sg16
L0L
sg17
L680833L
sg18
L0L
sg19
L0L
sg20
L0L
sg21
L0L
sg22
L0L
sg23
L0L
sg24
L6615L
sg25
L1146658L
sg26
F0.0
sg27
L0L
ssS'UMANOFF ADAM S'
p297
(dp298
g3
L111L
sg4
L0L
sg5
L53122L
sg6
I00
sg7
L0L
sg8
S'adam.umanoff@enron.com'
p299
sg10
L12L
sg11
L0L
sg12
F0.10810810810810811
sg13
L0L
sg14
L41L
sg15
L0L
sg16
L18L
sg17
L0L
sg18
L0L
sg19
L53L
sg20
L788750L
sg21
L0L
sg22
L0L
sg23
L0L
sg24
L288589L
sg25
L1130461L
sg26
F0.0
sg27
L0L
ssS'KEAN STEVEN J'
p300
(dp301
g3
L12754L
sg4
L0L
sg5
L41953L
sg6
I00
sg7
L300000L
sg8
S'steven.kean@enron.com'
p302
sg10
L140L
sg11
L0L
sg12
F0.010976948408342482
sg13
L0L
sg14
L3639L
sg15
L0L
sg16
L6759L
sg17
L1231L
sg18
L0L
sg19
L4166L
sg20
L1000000L
sg21
L6153642L
sg22
L387L
sg23
L4131594L
sg24
L404338L
sg25
L1747522L
sg26
F0.05725699067909454
sg27
L2022048L
ssS'FOWLER PEGGY'
p303
(dp304
g3
L517L
sg4
L0L
sg5
L0L
sg6
I00
sg7
L0L
sg8
S'kulvinder.fowler@enron.com'
p305
sg10
L0L
sg11
L0L
sg12
F0.0
sg13
L0L
sg14
L10L
sg15
L0L
sg16
L36L
sg17
L0L
sg18
L0L
sg19
L10L
sg20
L0L
sg21
L1884748L
sg22
L0L
sg23
L560170L
sg24
L0L
sg25
L0L
sg26
F0.0
sg27
L1324578L
ssS'WASAFF GEORGE'
p306
(dp307
g3
L400L
sg4
L831299L
sg5
L0L
sg6
I00
sg7
L200000L
sg8
S'george.wasaff@enron.com'
p308
sg10
L22L
sg11
L-583325L
sg12
F0.055
sg13
L0L
sg14
L337L
sg15
L0L
sg16
L30L
sg17
L1425L
sg18
L0L
sg19
L366L
sg20
L325000L
sg21
L2056427L
sg22
L7L
sg23
L388167L
sg24
L259996L
sg25
L1034395L
sg26
F0.23333333333333334
sg27
L1668260L
ssS'WHITE JR THOMAS E'
p309
(dp310
g3
L0L
sg4
L0L
sg5
L81353L
sg6
I00
sg7
L0L
sg8
S'thomas.white@enron.com'
p311
sg10
L0L
sg11
L0L
sg12
F0.0
sg13
L0L
sg14
L0L
sg15
L0L
sg16
L0L
sg17
L1085463L
sg18
L0L
sg19
L0L
sg20
L450000L
sg21
L15144123L
sg22
L0L
sg23
L13847074L
sg24
L317543L
sg25
L1934359L
sg26
F0.0
sg27
L1297049L
ssS'CHRISTODOULOU DIOMEDES'
p312
(dp313
g3
L0L
sg4
L0L
sg5
L0L
sg6
I00
sg7
L0L
sg8
S'diomedes.christodoulou@enron.com'
p314
sg10
L0L
sg11
L0L
sg12
F0.0
sg13
L0L
sg14
L0L
sg15
L0L
sg16
L0L
sg17
L0L
sg18
L0L
sg19
L0L
sg20
L0L
sg21
L6077885L
sg22
L0L
sg23
L950730L
sg24
L0L
sg25
L0L
sg26
F0.0
sg27
L5127155L
ssS'ALLEN PHILLIP K'
p315
(dp316
g3
L2902L
sg4
L2869717L
sg5
L13868L
sg6
I00
sg7
L304805L
sg8
S'phillip.allen@enron.com'
p317
sg10
L47L
sg11
L-3081055L
sg12
F0.016195727084769126
sg13
L-126027L
sg14
L1407L
sg15
L0L
sg16
L2195L
sg17
L152L
sg18
L0L
sg19
L1519L
sg20
L4175000L
sg21
L1729541L
sg22
L65L
sg23
L126027L
sg24
L201955L
sg25
L4484442L
sg26
F0.029612756264236904
sg27
L1729541L
ssS'SHARP VICTORIA T'
p318
(dp319
g3
L3136L
sg4
L187469L
sg5
L116337L
sg6
I00
sg7
L422158L
sg8
S'vicki.sharp@enron.com'
p320
sg10
L24L
sg11
L0L
sg12
F0.007653061224489796
sg13
L0L
sg14
L2477L
sg15
L0L
sg16
L136L
sg17
L2401L
sg18
L0L
sg19
L2507L
sg20
L600000L
sg21
L494136L
sg22
L6L
sg23
L213063L
sg24
L248146L
sg25
L1576511L
sg26
F0.04411764705882353
sg27
L281073L
ssS'JAEDICKE ROBERT'
p321
(dp322
g3
L0L
sg4
L0L
sg5
L0L
sg6
I00
sg7
L0L
sg8
I0
sg10
L0L
sg11
L-25000L
sg12
F0.0
sg13
L-44093L
sg14
L0L
sg15
L0L
sg16
L0L
sg17
L0L
sg18
L108750L
sg19
L0L
sg20
L0L
sg21
L431750L
sg22
L0L
sg23
L44093L
sg24
L0L
sg25
L83750L
sg26
F0.0
sg27
L431750L
ssS'WINOKUR JR. HERBERT S'
p323
(dp324
g3
L0L
sg4
L0L
sg5
L1413L
sg6
I00
sg7
L0L
sg8
I0
sg10
L0L
sg11
L-25000L
sg12
F0.0
sg13
L0L
sg14
L0L
sg15
L0L
sg16
L0L
sg17
L0L
sg18
L108579L
sg19
L0L
sg20
L0L
sg21
L0L
sg22
L0L
sg23
L0L
sg24
L0L
sg25
L84992L
sg26
F0.0
sg27
L0L
ssS'BROWN MICHAEL'
p325
(dp326
g3
L1486L
sg4
L0L
sg5
L49288L
sg6
I00
sg7
L0L
sg8
S'michael.brown@enron.com'
p327
sg10
L13L
sg11
L0L
sg12
F0.008748317631224764
sg13
L0L
sg14
L761L
sg15
L0L
sg16
L41L
sg17
L0L
sg18
L0L
sg19
L775L
sg20
L0L
sg21
L0L
sg22
L1L
sg23
L0L
sg24
L0L
sg25
L49288L
sg26
F0.024390243902439025
sg27
L0L
ssS'MCCLELLAN GEORGE'
p328
(dp329
g3
L1744L
sg4
L0L
sg5
L228763L
sg6
I00
sg7
L0L
sg8
S'george.mcclellan@enron.com'
p330
sg10
L52L
sg11
L-125000L
sg12
F0.02981651376146789
sg13
L0L
sg14
L1469L
sg15
L0L
sg16
L49L
sg17
L51587L
sg18
L0L
sg19
L1521L
sg20
L900000L
sg21
L947861L
sg22
L0L
sg23
L441096L
sg24
L263413L
sg25
L1318763L
sg26
F0.0
sg27
L506765L
ssS'HUGHES JAMES A'
p331
(dp332
g3
L719L
sg4
L0L
sg5
L0L
sg6
I00
sg7
L0L
sg8
S'james.hughes@enron.com'
p333
sg10
L35L
sg11
L0L
sg12
F0.048678720445062586
sg13
L0L
sg14
L589L
sg15
L0L
sg16
L34L
sg17
L0L
sg18
L0L
sg19
L629L
sg20
L0L
sg21
L1118394L
sg22
L5L
sg23
L363428L
sg24
L0L
sg25
L0L
sg26
F0.14705882352941177
sg27
L754966L
ssS'REYNOLDS LAWRENCE'
p334
(dp335
g3
L0L
sg4
L51365L
sg5
L8409L
sg6
I00
sg7
L156250L
sg8
I0
sg10
L0L
sg11
L-200000L
sg12
F0.0
sg13
L-140264L
sg14
L0L
sg15
L0L
sg16
L0L
sg17
L202052L
sg18
L0L
sg19
L0L
sg20
L100000L
sg21
L4221891L
sg22
L0L
sg23
L201483L
sg24
L76399L
sg25
L394475L
sg26
F0.0
sg27
L4160672L
ssS'PICKERING MARK R'
p336
(dp337
g3
L898L
sg4
L0L
sg5
L31653L
sg6
I00
sg7
L0L
sg8
S'mark.pickering@enron.com'
p338
sg10
L7L
sg11
L0L
sg12
F0.0077951002227171495
sg13
L0L
sg14
L728L
sg15
L400000L
sg16
L67L
sg17
L0L
sg18
L0L
sg19
L735L
sg20
L300000L
sg21
L28798L
sg22
L0L
sg23
L0L
sg24
L655037L
sg25
L1386690L
sg26
F0.0
sg27
L28798L
ssS'BHATNAGAR SANJAY'
p339
(dp340
g3
L523L
sg4
L0L
sg5
L0L
sg6
I00
sg7
L0L
sg8
S'sanjay.bhatnagar@enron.com'
p341
sg10
L0L
sg11
L0L
sg12
F0.0
sg13
L15456290L
sg14
L463L
sg15
L0L
sg16
L29L
sg17
L137864L
sg18
L137864L
sg19
L464L
sg20
L0L
sg21
L0L
sg22
L1L
sg23
L-2604490L
sg24
L0L
sg25
L15456290L
sg26
F0.034482758620689655
sg27
L2604490L
ssS'CARTER REBECCA C'
p342
(dp343
g3
L312L
sg4
L0L
sg5
L0L
sg6
I00
sg7
L75000L
sg8
S'rebecca.carter@enron.com'
p344
sg10
L29L
sg11
L-159792L
sg12
F0.09294871794871795
sg13
L-307301L
sg14
L196L
sg15
L0L
sg16
L15L
sg17
L540L
sg18
L0L
sg19
L232L
sg20
L300000L
sg21
L0L
sg22
L7L
sg23
L307301L
sg24
L261809L
sg25
L477557L
sg26
F0.4666666666666667
sg27
L0L
ssS'BUCHANAN HAROLD G'
p345
(dp346
g3
L1088L
sg4
L0L
sg5
L600L
sg6
I00
sg7
L304805L
sg8
S'john.buchanan@enron.com'
p347
sg10
L0L
sg11
L0L
sg12
F0.0
sg13
L0L
sg14
L23L
sg15
L0L
sg16
L125L
sg17
L1215L
sg18
L0L
sg19
L23L
sg20
L500000L
sg21
L1014505L
sg22
L0L
sg23
L189041L
sg24
L248017L
sg25
L1054637L
sg26
F0.0
sg27
L825464L
ssS'YEAP SOON'
p348
(dp349
g3
L0L
sg4
L0L
sg5
L55097L
sg6
I00
sg7
L0L
sg8
I0
sg10
L0L
sg11
L0L
sg12
F0.0
sg13
L0L
sg14
L0L
sg15
L0L
sg16
L0L
sg17
L0L
sg18
L0L
sg19
L0L
sg20
L0L
sg21
L192758L
sg22
L0L
sg23
L0L
sg24
L0L
sg25
L55097L
sg26
F0.0
sg27
L192758L
ssS'MURRAY JULIA H'
p350
(dp351
g3
L2192L
sg4
L0L
sg5
L57580L
sg6
I00
sg7
L125000L
sg8
S'julia.murray@enron.com'
p352
sg10
L11L
sg11
L0L
sg12
F0.005018248175182482
sg13
L0L
sg14
L395L
sg15
L0L
sg16
L45L
sg17
L330L
sg18
L0L
sg19
L408L
sg20
L400000L
sg21
L597461L
sg22
L2L
sg23
L196983L
sg24
L229284L
sg25
L812194L
sg26
F0.044444444444444446
sg27
L400478L
ssS'GARLAND C KEVIN'
p353
(dp354
g3
L209L
sg4
L0L
sg5
L48405L
sg6
I00
sg7
L375304L
sg8
S'kevin.garland@enron.com'
p355
sg10
L10L
sg11
L0L
sg12
F0.04784688995215311
sg13
L0L
sg14
L178L
sg15
L0L
sg16
L44L
sg17
L60814L
sg18
L0L
sg19
L215L
sg20
L850000L
sg21
L896153L
sg22
L27L
sg23
L259907L
sg24
L231946L
sg25
L1566469L
sg26
F0.6136363636363636
sg27
L636246L
ssS'DODSON KEITH'
p356
(dp357
g3
L176L
sg4
L0L
sg5
L28164L
sg6
I00
sg7
L0L
sg8
S'keith.dodson@enron.com'
p358
sg10
L10L
sg11
L0L
sg12
F0.056818181818181816
sg13
L0L
sg14
L114L
sg15
L0L
sg16
L14L
sg17
L774L
sg18
L0L
sg19
L127L
sg20
L70000L
sg21
L0L
sg22
L3L
sg23
L0L
sg24
L221003L
sg25
L319941L
sg26
F0.21428571428571427
sg27
L0L
ssS'YEAGER F SCOTT'
p359
(dp360
g3
L0L
sg4
L0L
sg5
L53947L
sg6
I01
sg7
L0L
sg8
S'scott.yeager@enron.com'
p361
sg10
L0L
sg11
L0L
sg12
F0.0
sg13
L0L
sg14
L0L
sg15
L0L
sg16
L0L
sg17
L147950L
sg18
L0L
sg19
L0L
sg20
L0L
sg21
L11884758L
sg22
L0L
sg23
L3576206L
sg24
L158403L
sg25
L360300L
sg26
F0.0
sg27
L8308552L
ssS'HIRKO JOSEPH'
p362
(dp363
g3
L0L
sg4
L10259L
sg5
L77978L
sg6
I01
sg7
L0L
sg8
S'joe.hirko@enron.com'
p364
sg10
L0L
sg11
L0L
sg12
F0.0
sg13
L0L
sg14
L0L
sg15
L0L
sg16
L0L
sg17
L2856L
sg18
L0L
sg19
L0L
sg20
L0L
sg21
L30766064L
sg22
L0L
sg23
L0L
sg24
L0L
sg25
L91093L
sg26
F0.0
sg27
L30766064L
ssS'DIETRICH JANET R'
p365
(dp366
g3
L2572L
sg4
L0L
sg5
L3475L
sg6
I00
sg7
L556416L
sg8
S'janet.dietrich@enron.com'
p367
sg10
L305L
sg11
L0L
sg12
F0.11858475894245724
sg13
L0L
sg14
L1902L
sg15
L0L
sg16
L63L
sg17
L473L
sg18
L0L
sg19
L2221L
sg20
L600000L
sg21
L1865087L
sg22
L14L
sg23
L315068L
sg24
L250100L
sg25
L1410464L
sg26
F0.2222222222222222
sg27
L1550019L
ssS'DERRICK JR. JAMES V'
p368
(dp369
g3
L2181L
sg4
L0L
sg5
L51124L
sg6
I00
sg7
L484000L
sg8
S'james.derrick@enron.com'
p370
sg10
L64L
sg11
L-1284000L
sg12
F0.029344337459880788
sg13
L-1787380L
sg14
L1401L
sg15
L0L
sg16
L909L
sg17
L7482L
sg18
L0L
sg19
L1485L
sg20
L800000L
sg21
L8831913L
sg22
L20L
sg23
L1787380L
sg24
L492375L
sg25
L550981L
sg26
F0.022002200220022004
sg27
L8831913L
ssS'FREVERT MARK A'
p371
(dp372
g3
L3275L
sg4
L6426990L
sg5
L86987L
sg6
I00
sg7
L1617011L
sg8
S'mark.frevert@enron.com'
p373
sg10
L242L
sg11
L-3367011L
sg12
F0.07389312977099237
sg13
L0L
sg14
L2979L
sg15
L2000000L
sg16
L21L
sg17
L7427621L
sg18
L0L
sg19
L3227L
sg20
L2000000L
sg21
L14622185L
sg22
L6L
sg23
L4188667L
sg24
L1060932L
sg25
L17252530L
sg26
F0.2857142857142857
sg27
L10433518L
ssS'PAI LOU L'
p374
(dp375
g3
L0L
sg4
L0L
sg5
L32047L
sg6
I00
sg7
L0L
sg8
S'lou.pai@enron.com'
p376
sg10
L0L
sg11
L0L
sg12
F0.0
sg13
L0L
sg14
L0L
sg15
L0L
sg16
L0L
sg17
L1829457L
sg18
L0L
sg19
L0L
sg20
L1000000L
sg21
L23817930L
sg22
L0L
sg23
L8453763L
sg24
L261879L
sg25
L3123383L
sg26
F0.0
sg27
L15364167L
ssS'HAYSLETT RODERICK J'
p377
(dp378
g3
L2649L
sg4
L0L
sg5
L0L
sg6
I00
sg7
L0L
sg8
S'rod.hayslett@enron.com'
p379
sg10
L35L
sg11
L0L
sg12
F0.01321253303133258
sg13
L0L
sg14
L571L
sg15
L0L
sg16
L1061L
sg17
L0L
sg18
L0L
sg19
L644L
sg20
L0L
sg21
L346663L
sg22
L38L
sg23
L346663L
sg24
L0L
sg25
L0L
sg26
F0.03581526861451461
sg27
L0L
ssS'BAY FRANKLIN R'
p380
(dp381
g3
L0L
sg4
L260455L
sg5
L129142L
sg6
I00
sg7
L0L
sg8
S'frank.bay@enron.com'
p382
sg10
L0L
sg11
L-201641L
sg12
F0.0
sg13
L-82782L
sg14
L0L
sg15
L0L
sg16
L0L
sg17
L69L
sg18
L0L
sg19
L0L
sg20
L400000L
sg21
L63014L
sg22
L0L
sg23
L145796L
sg24
L239671L
sg25
L827696L
sg26
F0.0
sg27
L0L
ssS'MCCARTY DANNY J'
p383
(dp384
g3
L1433L
sg4
L0L
sg5
L0L
sg6
I00
sg7
L0L
sg8
S'danny.mccarty@enron.com'
p385
sg10
L25L
sg11
L0L
sg12
F0.017445917655268667
sg13
L0L
sg14
L508L
sg15
L0L
sg16
L215L
sg17
L0L
sg18
L0L
sg19
L535L
sg20
L0L
sg21
L758931L
sg22
L2L
sg23
L94556L
sg24
L0L
sg25
L0L
sg26
F0.009302325581395349
sg27
L664375L
ssS'FUGH JOHN L'
p386
(dp387
g3
L0L
sg4
L50591L
sg5
L0L
sg6
I00
sg7
L0L
sg8
I0
sg10
L0L
sg11
L0L
sg12
F0.0
sg13
L0L
sg14
L0L
sg15
L0L
sg16
L0L
sg17
L0L
sg18
L0L
sg19
L0L
sg20
L0L
sg21
L176378L
sg22
L0L
sg23
L0L
sg24
L0L
sg25
L50591L
sg26
F0.0
sg27
L176378L
ssS'SCRIMSHAW MATTHEW'
p388
(dp389
g3
L0L
sg4
L0L
sg5
L0L
sg6
I00
sg7
L0L
sg8
S'matthew.scrimshaw@enron.com'
p390
sg10
L0L
sg11
L0L
sg12
F0.0
sg13
L0L
sg14
L0L
sg15
L0L
sg16
L0L
sg17
L0L
sg18
L0L
sg19
L0L
sg20
L0L
sg21
L759557L
sg22
L0L
sg23
L0L
sg24
L0L
sg25
L0L
sg26
F0.0
sg27
L759557L
ssS'KOENIG MARK E'
p391
(dp392
g3
L2374L
sg4
L0L
sg5
L127017L
sg6
I01
sg7
L300000L
sg8
S'mark.koenig@enron.com'
p393
sg10
L53L
sg11
L0L
sg12
F0.02232518955349621
sg13
L0L
sg14
L2271L
sg15
L0L
sg16
L61L
sg17
L150458L
sg18
L0L
sg19
L2339L
sg20
L700000L
sg21
L1920055L
sg22
L15L
sg23
L1248318L
sg24
L309946L
sg25
L1587421L
sg26
F0.2459016393442623
sg27
L671737L
ssS'SAVAGE FRANK'
p394
(dp395
g3
L0L
sg4
L0L
sg5
L0L
sg6
I00
sg7
L0L
sg8
I0
sg10
L0L
sg11
L-121284L
sg12
F0.0
sg13
L0L
sg14
L0L
sg15
L0L
sg16
L0L
sg17
L0L
sg18
L125034L
sg19
L0L
sg20
L0L
sg21
L0L
sg22
L0L
sg23
L0L
sg24
L0L
sg25
L3750L
sg26
F0.0
sg27
L0L
ssS'IZZO LAWRENCE L'
p396
(dp397
g3
L496L
sg4
L0L
sg5
L28093L
sg6
I00
sg7
L312500L
sg8
S'larry.izzo@enron.com'
p398
sg10
L28L
sg11
L0L
sg12
F0.056451612903225805
sg13
L0L
sg14
L437L
sg15
L0L
sg16
L19L
sg17
L1553729L
sg18
L0L
sg19
L470L
sg20
L0L
sg21
L5819980L
sg22
L5L
sg23
L3654808L
sg24
L85274L
sg25
L1979596L
sg26
F0.2631578947368421
sg27
L2165172L
ssS'TILNEY ELIZABETH A'
p399
(dp400
g3
L460L
sg4
L0L
sg5
L0L
sg6
I00
sg7
L275000L
sg8
S'elizabeth.tilney@enron.com'
p401
sg10
L10L
sg11
L-575000L
sg12
F0.021739130434782608
sg13
L0L
sg14
L379L
sg15
L0L
sg16
L19L
sg17
L152055L
sg18
L0L
sg19
L400L
sg20
L300000L
sg21
L1168042L
sg22
L11L
sg23
L576792L
sg24
L247338L
sg25
L399393L
sg26
F0.5789473684210527
sg27
L591250L
ssS'MARTIN AMANDA K'
p402
(dp403
g3
L1522L
sg4
L85430L
sg5
L8211L
sg6
I00
sg7
L5145434L
sg8
S'a..martin@enron.com'
p404
sg10
L8L
sg11
L0L
sg12
F0.005256241787122208
sg13
L0L
sg14
L477L
sg15
L0L
sg16
L230L
sg17
L2818454L
sg18
L0L
sg19
L485L
sg20
L0L
sg21
L2070306L
sg22
L0L
sg23
L0L
sg24
L349487L
sg25
L8407016L
sg26
F0.0
sg27
L2070306L
ssS'BUY RICHARD B'
p405
(dp406
g3
L3523L
sg4
L649584L
sg5
L0L
sg6
I00
sg7
L769862L
sg8
S'rick.buy@enron.com'
p407
sg10
L156L
sg11
L-694862L
sg12
F0.04428044280442804
sg13
L0L
sg14
L2333L
sg15
L0L
sg16
L1053L
sg17
L400572L
sg18
L0L
sg19
L2560L
sg20
L900000L
sg21
L3444470L
sg22
L71L
sg23
L901657L
sg24
L330546L
sg25
L2355702L
sg26
F0.06742640075973409
sg27
L2542813L
ssS'GRAMM WENDY L'
p408
(dp409
g3
L0L
sg4
L0L
sg5
L0L
sg6
I00
sg7
L0L
sg8
I0
sg10
L0L
sg11
L0L
sg12
F0.0
sg13
L0L
sg14
L0L
sg15
L0L
sg16
L0L
sg17
L0L
sg18
L119292L
sg19
L0L
sg20
L0L
sg21
L0L
sg22
L0L
sg23
L0L
sg24
L0L
sg25
L119292L
sg26
F0.0
sg27
L0L
ssS'CAUSEY RICHARD A'
p410
(dp411
g3
L1892L
sg4
L0L
sg5
L30674L
sg6
I01
sg7
L350000L
sg8
S'richard.causey@enron.com'
p412
sg10
L58L
sg11
L-235000L
sg12
F0.0306553911205074
sg13
L0L
sg14
L1585L
sg15
L0L
sg16
L49L
sg17
L307895L
sg18
L0L
sg19
L1655L
sg20
L1000000L
sg21
L2502063L
sg22
L12L
sg23
L2502063L
sg24
L415189L
sg25
L1868758L
sg26
F0.24489795918367346
sg27
L0L
ssS'TAYLOR MITCHELL S'
p413
(dp414
g3
L533L
sg4
L227449L
sg5
L0L
sg6
I00
sg7
L0L
sg8
S'mitchell.taylor@enron.com'
p415
sg10
L0L
sg11
L0L
sg12
F0.0
sg13
L0L
sg14
L300L
sg15
L0L
sg16
L29L
sg17
L0L
sg18
L0L
sg19
L300L
sg20
L600000L
sg21
L3745048L
sg22
L0L
sg23
L563798L
sg24
L265214L
sg25
L1092663L
sg26
F0.0
sg27
L3181250L
ssS'DONAHUE JR JEFFREY M'
p416
(dp417
g3
L865L
sg4
L0L
sg5
L96268L
sg6
I00
sg7
L0L
sg8
S'jeff.donahue@enron.com'
p418
sg10
L188L
sg11
L-300000L
sg12
F0.21734104046242775
sg13
L0L
sg14
L772L
sg15
L0L
sg16
L22L
sg17
L891L
sg18
L0L
sg19
L971L
sg20
L800000L
sg21
L1080988L
sg22
L11L
sg23
L315068L
sg24
L278601L
sg25
L875760L
sg26
F0.5
sg27
L765920L
ssS'GLISAN JR BEN F'
p419
(dp420
g3
L873L
sg4
L0L
sg5
L125978L
sg6
I01
sg7
L71023L
sg8
S'ben.glisan@enron.com'
p421
sg10
L52L
sg11
L0L
sg12
F0.05956471935853379
sg13
L0L
sg14
L874L
sg15
L0L
sg16
L16L
sg17
L200308L
sg18
L0L
sg19
L932L
sg20
L600000L
sg21
L778546L
sg22
L6L
sg23
L393818L
sg24
L274975L
sg25
L1272284L
sg26
F0.375
sg27
L384728L
ss.