(dp0
S'METTS MARK'
p1
(dp2
S'to_messages'
p3
L807L
sS'deferral_payments'
p4
L0L
sS'expenses'
p5
L94299L
sS'poi'
p6
I00
sS'long_term_incentive'
p7
L0L
sS'email_address'
p8
S'mark.metts@enron.com'
p9
sS'from_poi_to_this_person'
p10
L38L
sS'deferred_income'
p11
L0L
sS'fraction_from_poi'
p12
F0.04708798017348203
sS'restricted_stock_deferred'
p13
L0L
sS'shared_receipt_with_poi'
p14
L702L
sS'loan_advances'
p15
L0L
sS'from_messages'
p16
L29L
sS'other'
p17
L1740L
sS'director_fees'
p18
L0L
sS'bonus'
p19
L600000L
sS'total_stock_value'
p20
L585062L
sS'from_this_person_to_poi'
p21
L1L
sS'restricted_stock'
p22
L585062L
sS'salary'
p23
L365788L
sS'total_payments'
p24
L1061827L
sS'fraction_to_poi'
p25
F0.034482758620689655
sS'exercised_stock_options'
p26
L0L
ssS'BAXTER JOHN C'
p27
(dp28
g3
L0L
sg4
L1295738L
sg5
L11200L
sg6
I00
sg7
L1586055L
sg8
I0
sg10
L0L
sg11
L-1386055L
sg12
F0.0
sg13
L0L
sg14
L0L
sg15
L0L
sg16
L0L
sg17
L2660303L
sg18
L0L
sg19
L1200000L
sg20
L10623258L
sg21
L0L
sg22
L3942714L
sg23
L267102L
sg24
L5634343L
sg25
F0.0
sg26
L6680544L
ssS'ELLIOTT STEVEN'
p29
(dp30
g3
L0L
sg4
L0L
sg5
L78552L
sg6
I00
sg7
L0L
sg8
S'steven.elliott@enron.com'
p31
sg10
L0L
sg11
L-400729L
sg12
F0.0
sg13
L0L
sg14
L0L
sg15
L0L
sg16
L0L
sg17
L12961L
sg18
L0L
sg19
L350000L
sg20
L6678735L
sg21
L0L
sg22
L1788391L
sg23
L170941L
sg24
L211725L
sg25
F0.0
sg26
L4890344L
ssS'CORDES WILLIAM R'
p32
(dp33
g3
L764L
sg4
L0L
sg5
L0L
sg6
I00
sg7
L0L
sg8
S'bill.cordes@enron.com'
p34
sg10
L10L
sg11
L0L
sg12
F0.013089005235602094
sg13
L0L
sg14
L58L
sg15
L0L
sg16
L12L
sg17
L0L
sg18
L0L
sg19
L0L
sg20
L1038185L
sg21
L0L
sg22
L386335L
sg23
L0L
sg24
L0L
sg25
F0.0
sg26
L651850L
ssS'HANNON KEVIN P'
p35
(dp36
g3
L1045L
sg4
L0L
sg5
L34039L
sg6
I01
sg7
L1617011L
sg8
S'kevin.hannon@enron.com'
p37
sg10
L32L
sg11
L-3117011L
sg12
F0.03062200956937799
sg13
L0L
sg14
L1035L
sg15
L0L
sg16
L32L
sg17
L11350L
sg18
L0L
sg19
L1500000L
sg20
L6391065L
sg21
L21L
sg22
L853064L
sg23
L243293L
sg24
L288682L
sg25
F0.65625
sg26
L5538001L
ssS'MORDAUNT KRISTINA M'
p38
(dp39
g3
L0L
sg4
L0L
sg5
L35018L
sg6
I00
sg7
L0L
sg8
S'kristina.mordaunt@enron.com'
p40
sg10
L0L
sg11
L0L
sg12
F0.0
sg13
L0L
sg14
L0L
sg15
L0L
sg16
L0L
sg17
L1411L
sg18
L0L
sg19
L325000L
sg20
L208510L
sg21
L0L
sg22
L208510L
sg23
L267093L
sg24
L628522L
sg25
F0.0
sg26
L0L
ssS'MEYER ROCKFORD G'
p41
(dp42
g3
L232L
sg4
L1848227L
sg5
L0L
sg6
I00
sg7
L0L
sg8
S'rockford.meyer@enron.com'
p43
sg10
L0L
sg11
L0L
sg12
F0.0
sg13
L0L
sg14
L22L
sg15
L0L
sg16
L28L
sg17
L0L
sg18
L0L
sg19
L0L
sg20
L955873L
sg21
L0L
sg22
L462384L
sg23
L0L
sg24
L1848227L
sg25
F0.0
sg26
L493489L
ssS'MCMAHON JEFFREY'
p44
(dp45
g3
L2355L
sg4
L0L
sg5
L137108L
sg6
I00
sg7
L694862L
sg8
S'jeffrey.mcmahon@enron.com'
p46
sg10
L58L
sg11
L0L
sg12
F0.024628450106157114
sg13
L0L
sg14
L2228L
sg15
L0L
sg16
L48L
sg17
L297353L
sg18
L0L
sg19
L2600000L
sg20
L1662855L
sg21
L26L
sg22
L558801L
sg23
L370448L
sg24
L4099771L
sg25
F0.5416666666666666
sg26
L1104054L
ssS'HAEDICKE MARK E'
p47
(dp48
g3
L4009L
sg4
L2157527L
sg5
L76169L
sg6
I00
sg7
L983346L
sg8
S'mark.haedicke@enron.com'
p49
sg10
L180L
sg11
L-934484L
sg12
F0.04489897730107259
sg13
L-329825L
sg14
L1847L
sg15
L0L
sg16
L1941L
sg17
L52382L
sg18
L0L
sg19
L1150000L
sg20
L803094L
sg21
L61L
sg22
L524169L
sg23
L374125L
sg24
L3859065L
sg25
F0.03142709943328181
sg26
L608750L
ssS'PIPER GREGORY F'
p50
(dp51
g3
L1238L
sg4
L1130036L
sg5
L43057L
sg6
I00
sg7
L0L
sg8
S'greg.piper@enron.com'
p52
sg10
L61L
sg11
L-33333L
sg12
F0.049273021001615507
sg13
L-409554L
sg14
L742L
sg15
L0L
sg16
L222L
sg17
L778L
sg18
L0L
sg19
L400000L
sg20
L880290L
sg21
L48L
sg22
L409554L
sg23
L197091L
sg24
L1737629L
sg25
F0.21621621621621623
sg26
L880290L
ssS'HUMPHREY GENE E'
p53
(dp54
g3
L128L
sg4
L2964506L
sg5
L4994L
sg6
I00
sg7
L0L
sg8
S'gene.humphrey@enron.com'
p55
sg10
L10L
sg11
L0L
sg12
F0.078125
sg13
L0L
sg14
L119L
sg15
L0L
sg16
L17L
sg17
L0L
sg18
L0L
sg19
L0L
sg20
L2282768L
sg21
L17L
sg22
L0L
sg23
L130724L
sg24
L3100224L
sg25
F1.0
sg26
L2282768L
ssS'NOLES JAMES L'
p56
(dp57
g3
L0L
sg4
L774401L
sg5
L0L
sg6
I00
sg7
L0L
sg8
I0
sg10
L0L
sg11
L0L
sg12
F0.0
sg13
L-94556L
sg14
L0L
sg15
L0L
sg16
L0L
sg17
L0L
sg18
L0L
sg19
L0L
sg20
L368705L
sg21
L0L
sg22
L463261L
sg23
L0L
sg24
L774401L
sg25
F0.0
sg26
L0L
ssS'BLACHMAN JEREMY M'
p58
(dp59
g3
L2475L
sg4
L0L
sg5
L84208L
sg6
I00
sg7
L831809L
sg8
S'jeremy.blachman@enron.com'
p60
sg10
L25L
sg11
L0L
sg12
F0.010101010101010102
sg13
L0L
sg14
L2326L
sg15
L0L
sg16
L14L
sg17
L272L
sg18
L0L
sg19
L850000L
sg20
L954354L
sg21
L2L
sg22
L189041L
sg23
L248546L
sg24
L2014835L
sg25
F0.14285714285714285
sg26
L765313L
ssS'SUNDE MARTIN'
p61
(dp62
g3
L2647L
sg4
L0L
sg5
L0L
sg6
I00
sg7
L476451L
sg8
S'marty.sunde@enron.com'
p63
sg10
L37L
sg11
L0L
sg12
F0.013978088401964487
sg13
L0L
sg14
L2565L
sg15
L0L
sg16
L38L
sg17
L111122L
sg18
L0L
sg19
L700000L
sg20
L698920L
sg21
L13L
sg22
L698920L
sg23
L257486L
sg24
L1545059L
sg25
F0.34210526315789475
sg26
L0L
ssS'GIBBS DANA R'
p64
(dp65
g3
L169L
sg4
L504610L
sg5
L0L
sg6
I00
sg7
L461912L
sg8
S'dana.gibbs@enron.com'
p66
sg10
L0L
sg11
L0L
sg12
F0.0
sg13
L0L
sg14
L23L
sg15
L0L
sg16
L12L
sg17
L0L
sg18
L0L
sg19
L0L
sg20
L2218275L
sg21
L0L
sg22
L0L
sg23
L0L
sg24
L966522L
sg25
F0.0
sg26
L2218275L
ssS'LOWRY CHARLES P'
p67
(dp68
g3
L0L
sg4
L0L
sg5
L0L
sg6
I00
sg7
L0L
sg8
I0
sg10
L0L
sg11
L0L
sg12
F0.0
sg13
L-153686L
sg14
L0L
sg15
L0L
sg16
L0L
sg17
L0L
sg18
L0L
sg19
L0L
sg20
L372205L
sg21
L0L
sg22
L153686L
sg23
L0L
sg24
L0L
sg25
F0.0
sg26
L372205L
ssS'COLWELL WESLEY'
p69
(dp70
g3
L1758L
sg4
L27610L
sg5
L16514L
sg6
I01
sg7
L0L
sg8
S'wes.colwell@enron.com'
p71
sg10
L240L
sg11
L-144062L
sg12
F0.13651877133105803
sg13
L0L
sg14
L1132L
sg15
L0L
sg16
L40L
sg17
L101740L
sg18
L0L
sg19
L1200000L
sg20
L698242L
sg21
L11L
sg22
L698242L
sg23
L288542L
sg24
L1490344L
sg25
F0.275
sg26
L0L
ssS'MULLER MARK S'
p72
(dp73
g3
L136L
sg4
L842924L
sg5
L0L
sg6
I00
sg7
L1725545L
sg8
S's..muller@enron.com'
p74
sg10
L12L
sg11
L-719000L
sg12
F0.08823529411764706
sg13
L0L
sg14
L114L
sg15
L0L
sg16
L16L
sg17
L947L
sg18
L0L
sg19
L1100000L
sg20
L1416848L
sg21
L0L
sg22
L360528L
sg23
L251654L
sg24
L3202070L
sg25
F0.0
sg26
L1056320L
ssS'JACKSON CHARLENE R'
p75
(dp76
g3
L258L
sg4
L0L
sg5
L10181L
sg6
I00
sg7
L0L
sg8
S'charlene.jackson@enron.com'
p77
sg10
L25L
sg11
L0L
sg12
F0.09689922480620156
sg13
L0L
sg14
L117L
sg15
L0L
sg16
L56L
sg17
L2435L
sg18
L0L
sg19
L250000L
sg20
L725735L
sg21
L19L
sg22
L540672L
sg23
L288558L
sg24
L551174L
sg25
F0.3392857142857143
sg26
L185063L
ssS'WESTFAHL RICHARD K'
p78
(dp79
g3
L0L
sg4
L0L
sg5
L51870L
sg6
I00
sg7
L256191L
sg8
S'dick.westfahl@enron.com'
p80
sg10
L0L
sg11
L-10800L
sg12
F0.0
sg13
L0L
sg14
L0L
sg15
L0L
sg16
L0L
sg17
L401130L
sg18
L0L
sg19
L0L
sg20
L384930L
sg21
L0L
sg22
L384930L
sg23
L63744L
sg24
L762135L
sg25
F0.0
sg26
L0L
ssS'WALTERS GARETH W'
p81
(dp82
g3
L0L
sg4
L53625L
sg5
L33785L
sg6
I00
sg7
L0L
sg8
I0
sg10
L0L
sg11
L0L
sg12
F0.0
sg13
L0L
sg14
L0L
sg15
L0L
sg16
L0L
sg17
L0L
sg18
L0L
sg19
L0L
sg20
L1030329L
sg21
L0L
sg22
L0L
sg23
L0L
sg24
L87410L
sg25
F0.0
sg26
L1030329L
ssS'WALLS JR ROBERT H'
p83
(dp84
g3
L671L
sg4
L0L
sg5
L50936L
sg6
I00
sg7
L540751L
sg8
S'rob.walls@enron.com'
p85
sg10
L17L
sg11
L0L
sg12
F0.02533532041728763
sg13
L0L
sg14
L215L
sg15
L0L
sg16
L146L
sg17
L2L
sg18
L0L
sg19
L850000L
sg20
L5898997L
sg21
L0L
sg22
L1552453L
sg23
L357091L
sg24
L1798780L
sg25
F0.0
sg26
L4346544L
ssS'KITCHEN LOUISE'
p86
(dp87
g3
L8305L
sg4
L0L
sg5
L5774L
sg6
I00
sg7
L0L
sg8
S'louise.kitchen@enron.com'
p88
sg10
L251L
sg11
L0L
sg12
F0.030222757375075255
sg13
L0L
sg14
L3669L
sg15
L0L
sg16
L1728L
sg17
L93925L
sg18
L0L
sg19
L3100000L
sg20
L547143L
sg21
L194L
sg22
L466101L
sg23
L271442L
sg24
L3471141L
sg25
F0.11226851851851852
sg26
L81042L
ssS'CHAN RONNIE'
p89
(dp90
g3
L0L
sg4
L0L
sg5
L0L
sg6
I00
sg7
L0L
sg8
I0
sg10
L0L
sg11
L-98784L
sg12
F0.0
sg13
L-32460L
sg14
L0L
sg15
L0L
sg16
L0L
sg17
L0L
sg18
L98784L
sg19
L0L
sg20
L0L
sg21
L0L
sg22
L32460L
sg23
L0L
sg24
L0L
sg25
F0.0
sg26
L0L
ssS'BELFER ROBERT'
p91
(dp92
g3
L0L
sg4
L-102500L
sg5
L0L
sg6
I00
sg7
L0L
sg8
I0
sg10
L0L
sg11
L0L
sg12
F0.0
sg13
L44093L
sg14
L0L
sg15
L0L
sg16
L0L
sg17
L0L
sg18
L3285L
sg19
L0L
sg20
L-44093L
sg21
L0L
sg22
L0L
sg23
L0L
sg24
L102500L
sg25
F0.0
sg26
L3285L
ssS'SHANKMAN JEFFREY A'
p93
(dp94
g3
L3221L
sg4
L0L
sg5
L178979L
sg6
I00
sg7
L554422L
sg8
S'jeffrey.shankman@enron.com'
p95
sg10
L94L
sg11
L0L
sg12
F0.029183483390251473
sg13
L0L
sg14
L1730L
sg15
L0L
sg16
L2681L
sg17
L1191L
sg18
L0L
sg19
L2000000L
sg20
L2072035L
sg21
L83L
sg22
L630137L
sg23
L304110L
sg24
L3038702L
sg25
F0.030958597538232
sg26
L1441898L
ssS'WODRASKA JOHN'
p96
(dp97
g3
L0L
sg4
L0L
sg5
L0L
sg6
I00
sg7
L0L
sg8
S'john.wodraska@enron.com'
p98
sg10
L0L
sg11
L0L
sg12
F0.0
sg13
L0L
sg14
L0L
sg15
L0L
sg16
L0L
sg17
L189583L
sg18
L0L
sg19
L0L
sg20
L0L
sg21
L0L
sg22
L0L
sg23
L0L
sg24
L189583L
sg25
F0.0
sg26
L0L
ssS'BERGSIEKER RICHARD P'
p99
(dp100
g3
L383L
sg4
L0L
sg5
L59175L
sg6
I00
sg7
L180250L
sg8
S'rick.bergsieker@enron.com'
p101
sg10
L4L
sg11
L-485813L
sg12
F0.010443864229765013
sg13
L0L
sg14
L233L
sg15
L0L
sg16
L59L
sg17
L427316L
sg18
L0L
sg19
L250000L
sg20
L659249L
sg21
L0L
sg22
L659249L
sg23
L187922L
sg24
L618850L
sg25
F0.0
sg26
L0L
ssS'URQUHART JOHN A'
p102
(dp103
g3
L0L
sg4
L0L
sg5
L228656L
sg6
I00
sg7
L0L
sg8
I0
sg10
L0L
sg11
L-36666L
sg12
F0.0
sg13
L0L
sg14
L0L
sg15
L0L
sg16
L0L
sg17
L0L
sg18
L36666L
sg19
L0L
sg20
L0L
sg21
L0L
sg22
L0L
sg23
L0L
sg24
L228656L
sg25
F0.0
sg26
L0L
ssS'BIBI PHILIPPE A'
p104
(dp105
g3
L1607L
sg4
L0L
sg5
L38559L
sg6
I00
sg7
L369721L
sg8
S'philippe.bibi@enron.com'
p106
sg10
L23L
sg11
L0L
sg12
F0.01431238332296204
sg13
L0L
sg14
L1336L
sg15
L0L
sg16
L40L
sg17
L425688L
sg18
L0L
sg19
L1000000L
sg20
L1843816L
sg21
L8L
sg22
L378082L
sg23
L213625L
sg24
L2047593L
sg25
F0.2
sg26
L1465734L
ssS'RIEKER PAULA H'
p107
(dp108
g3
L1328L
sg4
L214678L
sg5
L33271L
sg6
I01
sg7
L0L
sg8
S'paula.rieker@enron.com'
p109
sg10
L35L
sg11
L-100000L
sg12
F0.02635542168674699
sg13
L0L
sg14
L1258L
sg15
L0L
sg16
L82L
sg17
L1950L
sg18
L0L
sg19
L700000L
sg20
L1918887L
sg21
L48L
sg22
L283649L
sg23
L249201L
sg24
L1099100L
sg25
F0.5853658536585366
sg26
L1635238L
ssS'WHALEY DAVID A'
p110
(dp111
g3
L0L
sg4
L0L
sg5
L0L
sg6
I00
sg7
L0L
sg8
I0
sg10
L0L
sg11
L0L
sg12
F0.0
sg13
L0L
sg14
L0L
sg15
L0L
sg16
L0L
sg17
L0L
sg18
L0L
sg19
L0L
sg20
L98718L
sg21
L0L
sg22
L0L
sg23
L0L
sg24
L0L
sg25
F0.0
sg26
L98718L
ssS'BECK SALLY W'
p112
(dp113
g3
L7315L
sg4
L0L
sg5
L37172L
sg6
I00
sg7
L0L
sg8
S'sally.beck@enron.com'
p114
sg10
L144L
sg11
L0L
sg12
F0.01968557758031442
sg13
L0L
sg14
L2639L
sg15
L0L
sg16
L4343L
sg17
L566L
sg18
L0L
sg19
L700000L
sg20
L126027L
sg21
L386L
sg22
L126027L
sg23
L231330L
sg24
L969068L
sg25
F0.08887865530739121
sg26
L0L
ssS'HAUG DAVID L'
p115
(dp116
g3
L573L
sg4
L0L
sg5
L475L
sg6
I00
sg7
L0L
sg8
S'david.haug@enron.com'
p117
sg10
L4L
sg11
L0L
sg12
F0.006980802792321117
sg13
L0L
sg14
L471L
sg15
L0L
sg16
L19L
sg17
L0L
sg18
L0L
sg19
L0L
sg20
L2217299L
sg21
L7L
sg22
L2217299L
sg23
L0L
sg24
L475L
sg25
F0.3684210526315789
sg26
L0L
ssS'ECHOLS JOHN B'
p118
(dp119
g3
L0L
sg4
L0L
sg5
L21530L
sg6
I00
sg7
L2234774L
sg8
S'john.echols@enron.com'
p120
sg10
L0L
sg11
L0L
sg12
F0.0
sg13
L0L
sg14
L0L
sg15
L0L
sg16
L0L
sg17
L53775L
sg18
L0L
sg19
L200000L
sg20
L1008941L
sg21
L0L
sg22
L407503L
sg23
L182245L
sg24
L2692324L
sg25
F0.0
sg26
L601438L
ssS'MENDELSOHN JOHN'
p121
(dp122
g3
L0L
sg4
L0L
sg5
L148L
sg6
I00
sg7
L0L
sg8
I0
sg10
L0L
sg11
L-103750L
sg12
F0.0
sg13
L0L
sg14
L0L
sg15
L0L
sg16
L0L
sg17
L0L
sg18
L103750L
sg19
L0L
sg20
L0L
sg21
L0L
sg22
L0L
sg23
L0L
sg24
L148L
sg25
F0.0
sg26
L0L
ssS'HICKERSON GARY J'
p123
(dp124
g3
L1320L
sg4
L0L
sg5
L98849L
sg6
I00
sg7
L69223L
sg8
S'gary.hickerson@enron.com'
p125
sg10
L40L
sg11
L0L
sg12
F0.030303030303030304
sg13
L0L
sg14
L900L
sg15
L0L
sg16
L27L
sg17
L1936L
sg18
L0L
sg19
L1700000L
sg20
L441096L
sg21
L1L
sg22
L441096L
sg23
L211788L
sg24
L2081796L
sg25
F0.037037037037037035
sg26
L0L
ssS'CLINE KENNETH W'
p126
(dp127
g3
L0L
sg4
L0L
sg5
L0L
sg6
I00
sg7
L0L
sg8
I0
sg10
L0L
sg11
L0L
sg12
F0.0
sg13
L-472568L
sg14
L0L
sg15
L0L
sg16
L0L
sg17
L0L
sg18
L0L
sg19
L0L
sg20
L189518L
sg21
L0L
sg22
L662086L
sg23
L0L
sg24
L0L
sg25
F0.0
sg26
L0L
ssS'LEWIS RICHARD'
p128
(dp129
g3
L952L
sg4
L0L
sg5
L0L
sg6
I00
sg7
L0L
sg8
S'richard.lewis@enron.com'
p130
sg10
L10L
sg11
L0L
sg12
F0.01050420168067227
sg13
L0L
sg14
L739L
sg15
L0L
sg16
L26L
sg17
L0L
sg18
L0L
sg19
L0L
sg20
L850477L
sg21
L0L
sg22
L0L
sg23
L0L
sg24
L0L
sg25
F0.0
sg26
L850477L
ssS'HAYES ROBERT E'
p131
(dp132
g3
L504L
sg4
L7961L
sg5
L0L
sg6
I00
sg7
L0L
sg8
S'robert.hayes@enron.com'
p133
sg10
L16L
sg11
L0L
sg12
F0.031746031746031744
sg13
L0L
sg14
L50L
sg15
L0L
sg16
L12L
sg17
L0L
sg18
L0L
sg19
L0L
sg20
L151418L
sg21
L0L
sg22
L151418L
sg23
L0L
sg24
L7961L
sg25
F0.0
sg26
L0L
ssS'KOPPER MICHAEL J'
p134
(dp135
g3
L0L
sg4
L0L
sg5
L118134L
sg6
I01
sg7
L602671L
sg8
S'michael.kopper@enron.com'
p136
sg10
L0L
sg11
L0L
sg12
F0.0
sg13
L0L
sg14
L0L
sg15
L0L
sg16
L0L
sg17
L907502L
sg18
L0L
sg19
L800000L
sg20
L985032L
sg21
L0L
sg22
L985032L
sg23
L224305L
sg24
L2652612L
sg25
F0.0
sg26
L0L
ssS'LEFF DANIEL P'
p137
(dp138
g3
L2822L
sg4
L0L
sg5
L0L
sg6
I00
sg7
L1387399L
sg8
S'dan.leff@enron.com'
p139
sg10
L67L
sg11
L0L
sg12
F0.02374202693125443
sg13
L0L
sg14
L2672L
sg15
L0L
sg16
L63L
sg17
L3083L
sg18
L0L
sg19
L1000000L
sg20
L360528L
sg21
L14L
sg22
L360528L
sg23
L273746L
sg24
L2664228L
sg25
F0.2222222222222222
sg26
L0L
ssS'LAVORATO JOHN J'
p140
(dp141
g3
L7259L
sg4
L0L
sg5
L49537L
sg6
I00
sg7
L2035380L
sg8
S'john.lavorato@enron.com'
p142
sg10
L528L
sg11
L0L
sg12
F0.07273729163796666
sg13
L0L
sg14
L3962L
sg15
L0L
sg16
L2585L
sg17
L1552L
sg18
L0L
sg19
L8000000L
sg20
L5167144L
sg21
L411L
sg22
L1008149L
sg23
L339288L
sg24
L10425757L
sg25
F0.15899419729206962
sg26
L4158995L
ssS'BERBERIAN DAVID'
p143
(dp144
g3
L0L
sg4
L0L
sg5
L11892L
sg6
I00
sg7
L0L
sg8
S'david.berberian@enron.com'
p145
sg10
L0L
sg11
L0L
sg12
F0.0
sg13
L0L
sg14
L0L
sg15
L0L
sg16
L0L
sg17
L0L
sg18
L0L
sg19
L0L
sg20
L2493616L
sg21
L0L
sg22
L869220L
sg23
L216582L
sg24
L228474L
sg25
F0.0
sg26
L1624396L
ssS'DETMERING TIMOTHY J'
p146
(dp147
g3
L0L
sg4
L875307L
sg5
L52255L
sg6
I00
sg7
L415657L
sg8
S'timothy.detmering@enron.com'
p148
sg10
L0L
sg11
L-775241L
sg12
F0.0
sg13
L-315068L
sg14
L0L
sg15
L0L
sg16
L0L
sg17
L1105L
sg18
L0L
sg19
L425000L
sg20
L2027865L
sg21
L0L
sg22
L315068L
sg23
L210500L
sg24
L1204583L
sg25
F0.0
sg26
L2027865L
ssS'WAKEHAM JOHN'
p149
(dp150
g3
L0L
sg4
L0L
sg5
L103773L
sg6
I00
sg7
L0L
sg8
I0
sg10
L0L
sg11
L0L
sg12
F0.0
sg13
L0L
sg14
L0L
sg15
L0L
sg16
L0L
sg17
L0L
sg18
L109298L
sg19
L0L
sg20
L0L
sg21
L0L
sg22
L0L
sg23
L0L
sg24
L213071L
sg25
F0.0
sg26
L0L
ssS'POWERS WILLIAM'
p151
(dp152
g3
L653L
sg4
L0L
sg5
L0L
sg6
I00
sg7
L0L
sg8
S'ken.powers@enron.com'
p153
sg10
L0L
sg11
L-17500L
sg12
F0.0
sg13
L0L
sg14
L12L
sg15
L0L
sg16
L26L
sg17
L0L
sg18
L17500L
sg19
L0L
sg20
L0L
sg21
L0L
sg22
L0L
sg23
L0L
sg24
L0L
sg25
F0.0
sg26
L0L
ssS'GOLD JOSEPH'
p154
(dp155
g3
L0L
sg4
L0L
sg5
L0L
sg6
I00
sg7
L304805L
sg8
S'joe.gold@enron.com'
p156
sg10
L0L
sg11
L0L
sg12
F0.0
sg13
L0L
sg14
L0L
sg15
L0L
sg16
L0L
sg17
L819288L
sg18
L0L
sg19
L750000L
sg20
L877611L
sg21
L0L
sg22
L441096L
sg23
L272880L
sg24
L2146973L
sg25
F0.0
sg26
L436515L
ssS'BANNANTINE JAMES M'
p157
(dp158
g3
L566L
sg4
L0L
sg5
L56301L
sg6
I00
sg7
L0L
sg8
S'james.bannantine@enron.com'
p159
sg10
L39L
sg11
L-5104L
sg12
F0.06890459363957598
sg13
L-560222L
sg14
L465L
sg15
L0L
sg16
L29L
sg17
L864523L
sg18
L0L
sg19
L0L
sg20
L5243487L
sg21
L0L
sg22
L1757552L
sg23
L477L
sg24
L916197L
sg25
F0.0
sg26
L4046157L
ssS'DUNCAN JOHN H'
p160
(dp161
g3
L0L
sg4
L0L
sg5
L0L
sg6
I00
sg7
L0L
sg8
I0
sg10
L0L
sg11
L-25000L
sg12
F0.0
sg13
L0L
sg14
L0L
sg15
L0L
sg16
L0L
sg17
L0L
sg18
L102492L
sg19
L0L
sg20
L371750L
sg21
L0L
sg22
L0L
sg23
L0L
sg24
L77492L
sg25
F0.0
sg26
L371750L
ssS'SHAPIRO RICHARD S'
p162
(dp163
g3
L15149L
sg4
L0L
sg5
L137767L
sg6
I00
sg7
L0L
sg8
S'richard.shapiro@enron.com'
p164
sg10
L74L
sg11
L0L
sg12
F0.0048848108786058485
sg13
L0L
sg14
L4527L
sg15
L0L
sg16
L1215L
sg17
L705L
sg18
L0L
sg19
L650000L
sg20
L987001L
sg21
L65L
sg22
L379164L
sg23
L269076L
sg24
L1057548L
sg25
F0.053497942386831275
sg26
L607837L
ssS'SHERRIFF JOHN R'
p165
(dp166
g3
L3187L
sg4
L0L
sg5
L0L
sg6
I00
sg7
L554422L
sg8
S'john.sherriff@enron.com'
p167
sg10
L28L
sg11
L0L
sg12
F0.008785691873235017
sg13
L0L
sg14
L2103L
sg15
L0L
sg16
L92L
sg17
L1852186L
sg18
L0L
sg19
L1500000L
sg20
L3128982L
sg21
L23L
sg22
L1293424L
sg23
L428780L
sg24
L4335388L
sg25
F0.25
sg26
L1835558L
ssS'SHELBY REX'
p168
(dp169
g3
L225L
sg4
L0L
sg5
L22884L
sg6
I01
sg7
L0L
sg8
S'rex.shelby@enron.com'
p170
sg10
L13L
sg11
L-4167L
sg12
F0.057777777777777775
sg13
L0L
sg14
L91L
sg15
L0L
sg16
L39L
sg17
L1573324L
sg18
L0L
sg19
L200000L
sg20
L2493616L
sg21
L14L
sg22
L869220L
sg23
L211844L
sg24
L2003885L
sg25
F0.358974358974359
sg26
L1624396L
ssS'LEMAISTRE CHARLES'
p171
(dp172
g3
L0L
sg4
L0L
sg5
L0L
sg6
I00
sg7
L0L
sg8
I0
sg10
L0L
sg11
L-25000L
sg12
F0.0
sg13
L0L
sg14
L0L
sg15
L0L
sg16
L0L
sg17
L0L
sg18
L112492L
sg19
L0L
sg20
L412878L
sg21
L0L
sg22
L0L
sg23
L0L
sg24
L87492L
sg25
F0.0
sg26
L412878L
ssS'DEFFNER JOSEPH M'
p173
(dp174
g3
L714L
sg4
L0L
sg5
L41626L
sg6
I00
sg7
L335349L
sg8
S'joseph.deffner@enron.com'
p175
sg10
L115L
sg11
L0L
sg12
F0.16106442577030813
sg13
L0L
sg14
L552L
sg15
L0L
sg16
L74L
sg17
L25553L
sg18
L0L
sg19
L600000L
sg20
L159211L
sg21
L4L
sg22
L141833L
sg23
L206121L
sg24
L1208649L
sg25
F0.05405405405405406
sg26
L17378L
ssS'KISHKILL JOSEPH G'
p176
(dp177
g3
L0L
sg4
L0L
sg5
L116335L
sg6
I00
sg7
L0L
sg8
S'joe.kishkill@enron.com'
p178
sg10
L0L
sg11
L-51042L
sg12
F0.0
sg13
L0L
sg14
L0L
sg15
L0L
sg16
L0L
sg17
L465357L
sg18
L0L
sg19
L0L
sg20
L1034346L
sg21
L0L
sg22
L1034346L
sg23
L174246L
sg24
L704896L
sg25
F0.0
sg26
L0L
ssS'WHALLEY LAWRENCE G'
p179
(dp180
g3
L6019L
sg4
L0L
sg5
L57838L
sg6
I00
sg7
L808346L
sg8
S'greg.whalley@enron.com'
p181
sg10
L186L
sg11
L0L
sg12
F0.03090214321315833
sg13
L0L
sg14
L3920L
sg15
L0L
sg16
L556L
sg17
L301026L
sg18
L0L
sg19
L3000000L
sg20
L6079137L
sg21
L24L
sg22
L2796177L
sg23
L510364L
sg24
L4677574L
sg25
F0.04316546762589928
sg26
L3282960L
ssS'PIRO JIM'
p182
(dp183
g3
L58L
sg4
L0L
sg5
L0L
sg6
I00
sg7
L0L
sg8
S'jim.piro@enron.com'
p184
sg10
L0L
sg11
L0L
sg12
F0.0
sg13
L0L
sg14
L3L
sg15
L0L
sg16
L16L
sg17
L0L
sg18
L0L
sg19
L0L
sg20
L47304L
sg21
L1L
sg22
L47304L
sg23
L0L
sg24
L0L
sg25
F0.0625
sg26
L0L
ssS'MCCONNELL MICHAEL S'
p185
(dp186
g3
L3329L
sg4
L0L
sg5
L81364L
sg6
I00
sg7
L554422L
sg8
S'mike.mcconnell@enron.com'
p187
sg10
L92L
sg11
L0L
sg12
F0.02763592670471613
sg13
L0L
sg14
L2189L
sg15
L0L
sg16
L2742L
sg17
L540L
sg18
L0L
sg19
L1100000L
sg20
L3101279L
sg21
L194L
sg22
L1478269L
sg23
L365038L
sg24
L2101364L
sg25
F0.07075127644055434
sg26
L1623010L
ssS'DELAINEY DAVID W'
p188
(dp189
g3
L3093L
sg4
L0L
sg5
L86174L
sg6
I01
sg7
L1294981L
sg8
S'david.delainey@enron.com'
p190
sg10
L66L
sg11
L0L
sg12
F0.02133850630455868
sg13
L0L
sg14
L2097L
sg15
L0L
sg16
L3069L
sg17
L1661L
sg18
L0L
sg19
L3000000L
sg20
L3614261L
sg21
L609L
sg22
L1323148L
sg23
L365163L
sg24
L4747979L
sg25
F0.198435972629521
sg26
L2291113L
ssS'SULLIVAN-SHAKLOVITZ COLLEEN'
p191
(dp192
g3
L0L
sg4
L181993L
sg5
L0L
sg6
I00
sg7
L554422L
sg8
I0
sg10
L0L
sg11
L0L
sg12
F0.0
sg13
L0L
sg14
L0L
sg15
L0L
sg16
L0L
sg17
L162L
sg18
L0L
sg19
L100000L
sg20
L1362375L
sg21
L0L
sg22
L0L
sg23
L162779L
sg24
L999356L
sg25
F0.0
sg26
L1362375L
ssS'WROBEL BRUCE'
p193
(dp194
g3
L0L
sg4
L0L
sg5
L0L
sg6
I00
sg7
L0L
sg8
I0
sg10
L0L
sg11
L0L
sg12
F0.0
sg13
L0L
sg14
L0L
sg15
L0L
sg16
L0L
sg17
L0L
sg18
L0L
sg19
L0L
sg20
L139130L
sg21
L0L
sg22
L0L
sg23
L0L
sg24
L0L
sg25
F0.0
sg26
L139130L
ssS'LINDHOLM TOD A'
p195
(dp196
g3
L0L
sg4
L204075L
sg5
L57727L
sg6
I00
sg7
L175000L
sg8
S'tod.lindholm@enron.com'
p197
sg10
L0L
sg11
L0L
sg12
F0.0
sg13
L0L
sg14
L0L
sg15
L0L
sg16
L0L
sg17
L2630L
sg18
L0L
sg19
L200000L
sg20
L3064208L
sg21
L0L
sg22
L514847L
sg23
L236457L
sg24
L875889L
sg25
F0.0
sg26
L2549361L
ssS'MEYER JEROME J'
p198
(dp199
g3
L0L
sg4
L0L
sg5
L2151L
sg6
I00
sg7
L0L
sg8
I0
sg10
L0L
sg11
L-38346L
sg12
F0.0
sg13
L0L
sg14
L0L
sg15
L0L
sg16
L0L
sg17
L0L
sg18
L38346L
sg19
L0L
sg20
L0L
sg21
L0L
sg22
L0L
sg23
L0L
sg24
L2151L
sg25
F0.0
sg26
L0L
ssS'LAY KENNETH L'
p200
(dp201
g3
L4273L
sg4
L202911L
sg5
L99832L
sg6
I01
sg7
L3600000L
sg8
S'kenneth.lay@enron.com'
p202
sg10
L123L
sg11
L-300000L
sg12
F0.028785396676807865
sg13
L0L
sg14
L2411L
sg15
L81525000L
sg16
L36L
sg17
L10359729L
sg18
L0L
sg19
L7000000L
sg20
L49110078L
sg21
L16L
sg22
L14761694L
sg23
L1072321L
sg24
L103559793L
sg25
F0.4444444444444444
sg26
L34348384L
ssS'BUTTS ROBERT H'
p203
(dp204
g3
L0L
sg4
L0L
sg5
L9410L
sg6
I00
sg7
L175000L
sg8
S'bob.butts@enron.com'
p205
sg10
L0L
sg11
L-75000L
sg12
F0.0
sg13
L0L
sg14
L0L
sg15
L0L
sg16
L0L
sg17
L150656L
sg18
L0L
sg19
L750000L
sg20
L417619L
sg21
L0L
sg22
L417619L
sg23
L261516L
sg24
L1271582L
sg25
F0.0
sg26
L0L
ssS'OLSON CINDY K'
p206
(dp207
g3
L1184L
sg4
L77716L
sg5
L63791L
sg6
I00
sg7
L100000L
sg8
S'cindy.olson@enron.com'
p208
sg10
L20L
sg11
L0L
sg12
F0.016891891891891893
sg13
L0L
sg14
L856L
sg15
L0L
sg16
L52L
sg17
L972L
sg18
L0L
sg19
L750000L
sg20
L2606763L
sg21
L15L
sg22
L969729L
sg23
L329078L
sg24
L1321557L
sg25
F0.28846153846153844
sg26
L1637034L
ssS'MCDONALD REBECCA'
p209
(dp210
g3
L894L
sg4
L0L
sg5
L0L
sg6
I00
sg7
L0L
sg8
S'rebecca.mcdonald@enron.com'
p211
sg10
L54L
sg11
L0L
sg12
F0.06040268456375839
sg13
L0L
sg14
L720L
sg15
L0L
sg16
L13L
sg17
L0L
sg18
L0L
sg19
L0L
sg20
L1691366L
sg21
L1L
sg22
L934065L
sg23
L0L
sg24
L0L
sg25
F0.07692307692307693
sg26
L757301L
ssS'CUMBERLAND MICHAEL S'
p212
(dp213
g3
L0L
sg4
L0L
sg5
L22344L
sg6
I00
sg7
L275000L
sg8
I0
sg10
L0L
sg11
L0L
sg12
F0.0
sg13
L0L
sg14
L0L
sg15
L0L
sg16
L0L
sg17
L713L
sg18
L0L
sg19
L325000L
sg20
L207940L
sg21
L0L
sg22
L207940L
sg23
L184899L
sg24
L807956L
sg25
F0.0
sg26
L0L
ssS'GAHN ROBERT S'
p214
(dp215
g3
L0L
sg4
L73122L
sg5
L50080L
sg6
I00
sg7
L0L
sg8
I0
sg10
L0L
sg11
L-1042L
sg12
F0.0
sg13
L0L
sg14
L0L
sg15
L0L
sg16
L0L
sg17
L76547L
sg18
L0L
sg19
L509870L
sg20
L318607L
sg21
L0L
sg22
L235370L
sg23
L192008L
sg24
L900585L
sg25
F0.0
sg26
L83237L
ssS'BADUM JAMES P'
p216
(dp217
g3
L0L
sg4
L178980L
sg5
L3486L
sg6
I00
sg7
L0L
sg8
I0
sg10
L0L
sg11
L0L
sg12
F0.0
sg13
L0L
sg14
L0L
sg15
L0L
sg16
L0L
sg17
L0L
sg18
L0L
sg19
L0L
sg20
L257817L
sg21
L0L
sg22
L0L
sg23
L0L
sg24
L182466L
sg25
F0.0
sg26
L257817L
ssS'HERMANN ROBERT J'
p218
(dp219
g3
L0L
sg4
L0L
sg5
L48357L
sg6
I00
sg7
L150000L
sg8
S'robert.hermann@enron.com'
p220
sg10
L0L
sg11
L-280000L
sg12
F0.0
sg13
L0L
sg14
L0L
sg15
L0L
sg16
L0L
sg17
L416441L
sg18
L0L
sg19
L700000L
sg20
L668132L
sg21
L0L
sg22
L480632L
sg23
L262663L
sg24
L1297461L
sg25
F0.0
sg26
L187500L
ssS'FALLON JAMES B'
p221
(dp222
g3
L1755L
sg4
L0L
sg5
L95924L
sg6
I00
sg7
L374347L
sg8
S'jim.fallon@enron.com'
p223
sg10
L42L
sg11
L0L
sg12
F0.023931623931623933
sg13
L0L
sg14
L1604L
sg15
L0L
sg16
L75L
sg17
L401481L
sg18
L0L
sg19
L2500000L
sg20
L2332399L
sg21
L37L
sg22
L1392142L
sg23
L304588L
sg24
L3676340L
sg25
F0.49333333333333335
sg26
L940257L
ssS'GATHMANN WILLIAM D'
p224
(dp225
g3
L0L
sg4
L0L
sg5
L0L
sg6
I00
sg7
L0L
sg8
I0
sg10
L0L
sg11
L0L
sg12
F0.0
sg13
L-72419L
sg14
L0L
sg15
L0L
sg16
L0L
sg17
L0L
sg18
L0L
sg19
L0L
sg20
L1945360L
sg21
L0L
sg22
L264013L
sg23
L0L
sg24
L0L
sg25
F0.0
sg26
L1753766L
ssS'HORTON STANLEY C'
p226
(dp227
g3
L2350L
sg4
L3131860L
sg5
L0L
sg6
I00
sg7
L0L
sg8
S'stanley.horton@enron.com'
p228
sg10
L44L
sg11
L0L
sg12
F0.01872340425531915
sg13
L0L
sg14
L1074L
sg15
L0L
sg16
L1073L
sg17
L0L
sg18
L0L
sg19
L0L
sg20
L7256648L
sg21
L15L
sg22
L2046079L
sg23
L0L
sg24
L3131860L
sg25
F0.013979496738117428
sg26
L5210569L
ssS'BOWEN JR RAYMOND M'
p229
(dp230
g3
L1858L
sg4
L0L
sg5
L65907L
sg6
I01
sg7
L974293L
sg8
S'raymond.bowen@enron.com'
p231
sg10
L140L
sg11
L-833L
sg12
F0.07534983853606028
sg13
L0L
sg14
L1593L
sg15
L0L
sg16
L27L
sg17
L1621L
sg18
L0L
sg19
L1350000L
sg20
L252055L
sg21
L15L
sg22
L252055L
sg23
L278601L
sg24
L2669589L
sg25
F0.5555555555555556
sg26
L0L
ssS'GILLIS JOHN'
p232
(dp233
g3
L0L
sg4
L0L
sg5
L0L
sg6
I00
sg7
L0L
sg8
I0
sg10
L0L
sg11
L0L
sg12
F0.0
sg13
L0L
sg14
L0L
sg15
L0L
sg16
L0L
sg17
L0L
sg18
L0L
sg19
L0L
sg20
L85641L
sg21
L0L
sg22
L75838L
sg23
L0L
sg24
L0L
sg25
F0.0
sg26
L9803L
ssS'FITZGERALD JAY L'
p234
(dp235
g3
L936L
sg4
L0L
sg5
L23870L
sg6
I00
sg7
L556416L
sg8
S'jay.fitzgerald@enron.com'
p236
sg10
L1L
sg11
L0L
sg12
F0.0010683760683760685
sg13
L0L
sg14
L723L
sg15
L0L
sg16
L16L
sg17
L285414L
sg18
L0L
sg19
L350000L
sg20
L1621236L
sg21
L8L
sg22
L956775L
sg23
L199157L
sg24
L1414857L
sg25
F0.5
sg26
L664461L
ssS'MORAN MICHAEL P'
p237
(dp238
g3
L672L
sg4
L0L
sg5
L0L
sg6
I00
sg7
L0L
sg8
S'michael.moran@enron.com'
p239
sg10
L0L
sg11
L0L
sg12
F0.0
sg13
L0L
sg14
L127L
sg15
L0L
sg16
L19L
sg17
L0L
sg18
L0L
sg19
L0L
sg20
L221141L
sg21
L0L
sg22
L161602L
sg23
L0L
sg24
L0L
sg25
F0.0
sg26
L59539L
ssS'REDMOND BRIAN L'
p240
(dp241
g3
L1671L
sg4
L0L
sg5
L14689L
sg6
I00
sg7
L0L
sg8
S'brian.redmond@enron.com'
p242
sg10
L204L
sg11
L0L
sg12
F0.12208258527827648
sg13
L0L
sg14
L1063L
sg15
L0L
sg16
L221L
sg17
L0L
sg18
L0L
sg19
L0L
sg20
L7890324L
sg21
L49L
sg22
L381285L
sg23
L96840L
sg24
L111529L
sg25
F0.22171945701357465
sg26
L7509039L
ssS'BAZELIDES PHILIP J'
p243
(dp244
g3
L0L
sg4
L684694L
sg5
L0L
sg6
I00
sg7
L93750L
sg8
I0
sg10
L0L
sg11
L0L
sg12
F0.0
sg13
L0L
sg14
L0L
sg15
L0L
sg16
L0L
sg17
L874L
sg18
L0L
sg19
L0L
sg20
L1599641L
sg21
L0L
sg22
L0L
sg23
L80818L
sg24
L860136L
sg25
F0.0
sg26
L1599641L
ssS'BELDEN TIMOTHY N'
p245
(dp246
g3
L7991L
sg4
L2144013L
sg5
L17355L
sg6
I01
sg7
L0L
sg8
S'tim.belden@enron.com'
p247
sg10
L228L
sg11
L-2334434L
sg12
F0.028532098610937303
sg13
L0L
sg14
L5521L
sg15
L0L
sg16
L484L
sg17
L210698L
sg18
L0L
sg19
L5249999L
sg20
L1110705L
sg21
L108L
sg22
L157569L
sg23
L213999L
sg24
L5501630L
sg25
F0.2231404958677686
sg26
L953136L
ssS'DIMICHELE RICHARD G'
p248
(dp249
g3
L0L
sg4
L0L
sg5
L35812L
sg6
I00
sg7
L694862L
sg8
S'richard.dimichele@enron.com'
p250
sg10
L0L
sg11
L0L
sg12
F0.0
sg13
L0L
sg14
L0L
sg15
L0L
sg16
L0L
sg17
L374689L
sg18
L0L
sg19
L1000000L
sg20
L8317782L
sg21
L0L
sg22
L126027L
sg23
L262788L
sg24
L2368151L
sg25
F0.0
sg26
L8191755L
ssS'DURAN WILLIAM D'
p251
(dp252
g3
L904L
sg4
L0L
sg5
L25785L
sg6
I00
sg7
L1105218L
sg8
S'w.duran@enron.com'
p253
sg10
L106L
sg11
L0L
sg12
F0.1172566371681416
sg13
L0L
sg14
L599L
sg15
L0L
sg16
L12L
sg17
L1568L
sg18
L0L
sg19
L750000L
sg20
L1640910L
sg21
L3L
sg22
L189041L
sg23
L210692L
sg24
L2093263L
sg25
F0.25
sg26
L1451869L
ssS'THORN TERENCE H'
p254
(dp255
g3
L266L
sg4
L16586L
sg5
L46145L
sg6
I00
sg7
L200000L
sg8
S'terence.thorn@enron.com'
p256
sg10
L0L
sg11
L0L
sg12
F0.0
sg13
L0L
sg14
L73L
sg15
L0L
sg16
L41L
sg17
L426629L
sg18
L0L
sg19
L0L
sg20
L4817796L
sg21
L0L
sg22
L365320L
sg23
L222093L
sg24
L911453L
sg25
F0.0
sg26
L4452476L
ssS'FASTOW ANDREW S'
p257
(dp258
g3
L0L
sg4
L0L
sg5
L55921L
sg6
I01
sg7
L1736055L
sg8
S'andrew.fastow@enron.com'
p259
sg10
L0L
sg11
L-1386055L
sg12
F0.0
sg13
L0L
sg14
L0L
sg15
L0L
sg16
L0L
sg17
L277464L
sg18
L0L
sg19
L1300000L
sg20
L1794412L
sg21
L0L
sg22
L1794412L
sg23
L440698L
sg24
L2424083L
sg25
F0.0
sg26
L0L
ssS'FOY JOE'
p260
(dp261
g3
L57L
sg4
L181755L
sg5
L0L
sg6
I00
sg7
L0L
sg8
S'tracy.foy@enron.com'
p262
sg10
L0L
sg11
L0L
sg12
F0.0
sg13
L0L
sg14
L2L
sg15
L0L
sg16
L13L
sg17
L0L
sg18
L0L
sg19
L0L
sg20
L343434L
sg21
L0L
sg22
L0L
sg23
L0L
sg24
L181755L
sg25
F0.0
sg26
L343434L
ssS'CALGER CHRISTOPHER F'
p263
(dp264
g3
L2598L
sg4
L0L
sg5
L35818L
sg6
I01
sg7
L375304L
sg8
S'christopher.calger@enron.com'
p265
sg10
L199L
sg11
L-262500L
sg12
F0.07659738260200154
sg13
L0L
sg14
L2188L
sg15
L0L
sg16
L144L
sg17
L486L
sg18
L0L
sg19
L1250000L
sg20
L126027L
sg21
L25L
sg22
L126027L
sg23
L240189L
sg24
L1639297L
sg25
F0.1736111111111111
sg26
L0L
ssS'RICE KENNETH D'
p266
(dp267
g3
L905L
sg4
L0L
sg5
L46950L
sg6
I01
sg7
L1617011L
sg8
S'ken.rice@enron.com'
p268
sg10
L42L
sg11
L-3504386L
sg12
F0.04640883977900553
sg13
L0L
sg14
L864L
sg15
L0L
sg16
L18L
sg17
L174839L
sg18
L0L
sg19
L1750000L
sg20
L22542539L
sg21
L4L
sg22
L2748364L
sg23
L420636L
sg24
L505050L
sg25
F0.2222222222222222
sg26
L19794175L
ssS'KAMINSKI WINCENTY J'
p269
(dp270
g3
L4607L
sg4
L0L
sg5
L83585L
sg6
I00
sg7
L323466L
sg8
S'vince.kaminski@enron.com'
p271
sg10
L41L
sg11
L0L
sg12
F0.008899500759713479
sg13
L0L
sg14
L583L
sg15
L0L
sg16
L14368L
sg17
L4669L
sg18
L0L
sg19
L400000L
sg20
L976037L
sg21
L171L
sg22
L126027L
sg23
L275101L
sg24
L1086821L
sg25
F0.011901447661469933
sg26
L850010L
ssS'COX DAVID'
p272
(dp273
g3
L102L
sg4
L0L
sg5
L27861L
sg6
I00
sg7
L0L
sg8
S'chip.cox@enron.com'
p274
sg10
L0L
sg11
L-41250L
sg12
F0.0
sg13
L0L
sg14
L71L
sg15
L0L
sg16
L33L
sg17
L494L
sg18
L0L
sg19
L800000L
sg20
L495633L
sg21
L4L
sg22
L378082L
sg23
L314288L
sg24
L1101393L
sg25
F0.12121212121212122
sg26
L117551L
ssS'OVERDYKE JR JERE C'
p275
(dp276
g3
L0L
sg4
L0L
sg5
L18834L
sg6
I00
sg7
L135836L
sg8
S'jere.overdyke@enron.com'
p277
sg10
L0L
sg11
L0L
sg12
F0.0
sg13
L0L
sg14
L0L
sg15
L0L
sg16
L0L
sg17
L176L
sg18
L0L
sg19
L0L
sg20
L7307594L
sg21
L0L
sg22
L2041016L
sg23
L94941L
sg24
L249787L
sg25
F0.0
sg26
L5266578L
ssS'PEREIRA PAULO V. FERRAZ'
p278
(dp279
g3
L0L
sg4
L0L
sg5
L27942L
sg6
I00
sg7
L0L
sg8
I0
sg10
L0L
sg11
L-101250L
sg12
F0.0
sg13
L0L
sg14
L0L
sg15
L0L
sg16
L0L
sg17
L0L
sg18
L101250L
sg19
L0L
sg20
L0L
sg21
L0L
sg22
L0L
sg23
L0L
sg24
L27942L
sg25
F0.0
sg26
L0L
ssS'STABLER FRANK'
p280
(dp281
g3
L0L
sg4
L0L
sg5
L16514L
sg6
I00
sg7
L0L
sg8
S'frank.stabler@enron.com'
p282
sg10
L0L
sg11
L0L
sg12
F0.0
sg13
L0L
sg14
L0L
sg15
L0L
sg16
L0L
sg17
L356071L
sg18
L0L
sg19
L500000L
sg20
L511734L
sg21
L0L
sg22
L511734L
sg23
L239502L
sg24
L1112087L
sg25
F0.0
sg26
L0L
ssS'SKILLING JEFFREY K'
p283
(dp284
g3
L3627L
sg4
L0L
sg5
L29336L
sg6
I01
sg7
L1920000L
sg8
S'jeff.skilling@enron.com'
p285
sg10
L88L
sg11
L0L
sg12
F0.0242624758753791
sg13
L0L
sg14
L2042L
sg15
L0L
sg16
L108L
sg17
L22122L
sg18
L0L
sg19
L5600000L
sg20
L26093672L
sg21
L30L
sg22
L6843672L
sg23
L1111258L
sg24
L8682716L
sg25
F0.2777777777777778
sg26
L19250000L
ssS'BLAKE JR. NORMAN P'
p286
(dp287
g3
L0L
sg4
L0L
sg5
L1279L
sg6
I00
sg7
L0L
sg8
I0
sg10
L0L
sg11
L-113784L
sg12
F0.0
sg13
L0L
sg14
L0L
sg15
L0L
sg16
L0L
sg17
L0L
sg18
L113784L
sg19
L0L
sg20
L0L
sg21
L0L
sg22
L0L
sg23
L0L
sg24
L1279L
sg25
F0.0
sg26
L0L
ssS'SHERRICK JEFFREY B'
p288
(dp289
g3
L613L
sg4
L0L
sg5
L0L
sg6
I00
sg7
L0L
sg8
S'jeffrey.sherrick@enron.com'
p290
sg10
L39L
sg11
L0L
sg12
F0.0636215334420881
sg13
L0L
sg14
L583L
sg15
L0L
sg16
L25L
sg17
L0L
sg18
L0L
sg19
L0L
sg20
L1832468L
sg21
L18L
sg22
L405999L
sg23
L0L
sg24
L0L
sg25
F0.72
sg26
L1426469L
ssS'PRENTICE JAMES'
p291
(dp292
g3
L0L
sg4
L564348L
sg5
L0L
sg6
I00
sg7
L0L
sg8
S'james.prentice@enron.com'
p293
sg10
L0L
sg11
L0L
sg12
F0.0
sg13
L0L
sg14
L0L
sg15
L0L
sg16
L0L
sg17
L0L
sg18
L0L
sg19
L0L
sg20
L1095040L
sg21
L0L
sg22
L208809L
sg23
L0L
sg24
L564348L
sg25
F0.0
sg26
L886231L
ssS'GRAY RODNEY'
p294
(dp295
g3
L0L
sg4
L93585L
sg5
L0L
sg6
I00
sg7
L365625L
sg8
I0
sg10
L0L
sg11
L0L
sg12
F0.0
sg13
L0L
sg14
L0L
sg15
L0L
sg16
L0L
sg17
L680833L
sg18
L0L
sg19
L0L
sg20
L0L
sg21
L0L
sg22
L0L
sg23
L6615L
sg24
L1146658L
sg25
F0.0
sg26
L0L
ssS'UMANOFF ADAM S'
p296
(dp297
g3
L111L
sg4
L0L
sg5
L53122L
sg6
I00
sg7
L0L
sg8
S'adam.umanoff@enron.com'
p298
sg10
L12L
sg11
L0L
sg12
F0.10810810810810811
sg13
L0L
sg14
L41L
sg15
L0L
sg16
L18L
sg17
L0L
sg18
L0L
sg19
L788750L
sg20
L0L
sg21
L0L
sg22
L0L
sg23
L288589L
sg24
L1130461L
sg25
F0.0
sg26
L0L
ssS'KEAN STEVEN J'
p299
(dp300
g3
L12754L
sg4
L0L
sg5
L41953L
sg6
I00
sg7
L300000L
sg8
S'steven.kean@enron.com'
p301
sg10
L140L
sg11
L0L
sg12
F0.010976948408342482
sg13
L0L
sg14
L3639L
sg15
L0L
sg16
L6759L
sg17
L1231L
sg18
L0L
sg19
L1000000L
sg20
L6153642L
sg21
L387L
sg22
L4131594L
sg23
L404338L
sg24
L1747522L
sg25
F0.05725699067909454
sg26
L2022048L
ssS'FOWLER PEGGY'
p302
(dp303
g3
L517L
sg4
L0L
sg5
L0L
sg6
I00
sg7
L0L
sg8
S'kulvinder.fowler@enron.com'
p304
sg10
L0L
sg11
L0L
sg12
F0.0
sg13
L0L
sg14
L10L
sg15
L0L
sg16
L36L
sg17
L0L
sg18
L0L
sg19
L0L
sg20
L1884748L
sg21
L0L
sg22
L560170L
sg23
L0L
sg24
L0L
sg25
F0.0
sg26
L1324578L
ssS'WASAFF GEORGE'
p305
(dp306
g3
L400L
sg4
L831299L
sg5
L0L
sg6
I00
sg7
L200000L
sg8
S'george.wasaff@enron.com'
p307
sg10
L22L
sg11
L-583325L
sg12
F0.055
sg13
L0L
sg14
L337L
sg15
L0L
sg16
L30L
sg17
L1425L
sg18
L0L
sg19
L325000L
sg20
L2056427L
sg21
L7L
sg22
L388167L
sg23
L259996L
sg24
L1034395L
sg25
F0.23333333333333334
sg26
L1668260L
ssS'WHITE JR THOMAS E'
p308
(dp309
g3
L0L
sg4
L0L
sg5
L81353L
sg6
I00
sg7
L0L
sg8
S'thomas.white@enron.com'
p310
sg10
L0L
sg11
L0L
sg12
F0.0
sg13
L0L
sg14
L0L
sg15
L0L
sg16
L0L
sg17
L1085463L
sg18
L0L
sg19
L450000L
sg20
L15144123L
sg21
L0L
sg22
L13847074L
sg23
L317543L
sg24
L1934359L
sg25
F0.0
sg26
L1297049L
ssS'CHRISTODOULOU DIOMEDES'
p311
(dp312
g3
L0L
sg4
L0L
sg5
L0L
sg6
I00
sg7
L0L
sg8
S'diomedes.christodoulou@enron.com'
p313
sg10
L0L
sg11
L0L
sg12
F0.0
sg13
L0L
sg14
L0L
sg15
L0L
sg16
L0L
sg17
L0L
sg18
L0L
sg19
L0L
sg20
L6077885L
sg21
L0L
sg22
L950730L
sg23
L0L
sg24
L0L
sg25
F0.0
sg26
L5127155L
ssS'ALLEN PHILLIP K'
p314
(dp315
g3
L2902L
sg4
L2869717L
sg5
L13868L
sg6
I00
sg7
L304805L
sg8
S'phillip.allen@enron.com'
p316
sg10
L47L
sg11
L-3081055L
sg12
F0.016195727084769126
sg13
L-126027L
sg14
L1407L
sg15
L0L
sg16
L2195L
sg17
L152L
sg18
L0L
sg19
L4175000L
sg20
L1729541L
sg21
L65L
sg22
L126027L
sg23
L201955L
sg24
L4484442L
sg25
F0.029612756264236904
sg26
L1729541L
ssS'SHARP VICTORIA T'
p317
(dp318
g3
L3136L
sg4
L187469L
sg5
L116337L
sg6
I00
sg7
L422158L
sg8
S'vicki.sharp@enron.com'
p319
sg10
L24L
sg11
L0L
sg12
F0.007653061224489796
sg13
L0L
sg14
L2477L
sg15
L0L
sg16
L136L
sg17
L2401L
sg18
L0L
sg19
L600000L
sg20
L494136L
sg21
L6L
sg22
L213063L
sg23
L248146L
sg24
L1576511L
sg25
F0.04411764705882353
sg26
L281073L
ssS'JAEDICKE ROBERT'
p320
(dp321
g3
L0L
sg4
L0L
sg5
L0L
sg6
I00
sg7
L0L
sg8
I0
sg10
L0L
sg11
L-25000L
sg12
F0.0
sg13
L-44093L
sg14
L0L
sg15
L0L
sg16
L0L
sg17
L0L
sg18
L108750L
sg19
L0L
sg20
L431750L
sg21
L0L
sg22
L44093L
sg23
L0L
sg24
L83750L
sg25
F0.0
sg26
L431750L
ssS'WINOKUR JR. HERBERT S'
p322
(dp323
g3
L0L
sg4
L0L
sg5
L1413L
sg6
I00
sg7
L0L
sg8
I0
sg10
L0L
sg11
L-25000L
sg12
F0.0
sg13
L0L
sg14
L0L
sg15
L0L
sg16
L0L
sg17
L0L
sg18
L108579L
sg19
L0L
sg20
L0L
sg21
L0L
sg22
L0L
sg23
L0L
sg24
L84992L
sg25
F0.0
sg26
L0L
ssS'BROWN MICHAEL'
p324
(dp325
g3
L1486L
sg4
L0L
sg5
L49288L
sg6
I00
sg7
L0L
sg8
S'michael.brown@enron.com'
p326
sg10
L13L
sg11
L0L
sg12
F0.008748317631224764
sg13
L0L
sg14
L761L
sg15
L0L
sg16
L41L
sg17
L0L
sg18
L0L
sg19
L0L
sg20
L0L
sg21
L1L
sg22
L0L
sg23
L0L
sg24
L49288L
sg25
F0.024390243902439025
sg26
L0L
ssS'MCCLELLAN GEORGE'
p327
(dp328
g3
L1744L
sg4
L0L
sg5
L228763L
sg6
I00
sg7
L0L
sg8
S'george.mcclellan@enron.com'
p329
sg10
L52L
sg11
L-125000L
sg12
F0.02981651376146789
sg13
L0L
sg14
L1469L
sg15
L0L
sg16
L49L
sg17
L51587L
sg18
L0L
sg19
L900000L
sg20
L947861L
sg21
L0L
sg22
L441096L
sg23
L263413L
sg24
L1318763L
sg25
F0.0
sg26
L506765L
ssS'HUGHES JAMES A'
p330
(dp331
g3
L719L
sg4
L0L
sg5
L0L
sg6
I00
sg7
L0L
sg8
S'james.hughes@enron.com'
p332
sg10
L35L
sg11
L0L
sg12
F0.048678720445062586
sg13
L0L
sg14
L589L
sg15
L0L
sg16
L34L
sg17
L0L
sg18
L0L
sg19
L0L
sg20
L1118394L
sg21
L5L
sg22
L363428L
sg23
L0L
sg24
L0L
sg25
F0.14705882352941177
sg26
L754966L
ssS'REYNOLDS LAWRENCE'
p333
(dp334
g3
L0L
sg4
L51365L
sg5
L8409L
sg6
I00
sg7
L156250L
sg8
I0
sg10
L0L
sg11
L-200000L
sg12
F0.0
sg13
L-140264L
sg14
L0L
sg15
L0L
sg16
L0L
sg17
L202052L
sg18
L0L
sg19
L100000L
sg20
L4221891L
sg21
L0L
sg22
L201483L
sg23
L76399L
sg24
L394475L
sg25
F0.0
sg26
L4160672L
ssS'PICKERING MARK R'
p335
(dp336
g3
L898L
sg4
L0L
sg5
L31653L
sg6
I00
sg7
L0L
sg8
S'mark.pickering@enron.com'
p337
sg10
L7L
sg11
L0L
sg12
F0.0077951002227171495
sg13
L0L
sg14
L728L
sg15
L400000L
sg16
L67L
sg17
L0L
sg18
L0L
sg19
L300000L
sg20
L28798L
sg21
L0L
sg22
L0L
sg23
L655037L
sg24
L1386690L
sg25
F0.0
sg26
L28798L
ssS'BHATNAGAR SANJAY'
p338
(dp339
g3
L523L
sg4
L0L
sg5
L0L
sg6
I00
sg7
L0L
sg8
S'sanjay.bhatnagar@enron.com'
p340
sg10
L0L
sg11
L0L
sg12
F0.0
sg13
L15456290L
sg14
L463L
sg15
L0L
sg16
L29L
sg17
L137864L
sg18
L137864L
sg19
L0L
sg20
L0L
sg21
L1L
sg22
L-2604490L
sg23
L0L
sg24
L15456290L
sg25
F0.034482758620689655
sg26
L2604490L
ssS'CARTER REBECCA C'
p341
(dp342
g3
L312L
sg4
L0L
sg5
L0L
sg6
I00
sg7
L75000L
sg8
S'rebecca.carter@enron.com'
p343
sg10
L29L
sg11
L-159792L
sg12
F0.09294871794871795
sg13
L-307301L
sg14
L196L
sg15
L0L
sg16
L15L
sg17
L540L
sg18
L0L
sg19
L300000L
sg20
L0L
sg21
L7L
sg22
L307301L
sg23
L261809L
sg24
L477557L
sg25
F0.4666666666666667
sg26
L0L
ssS'BUCHANAN HAROLD G'
p344
(dp345
g3
L1088L
sg4
L0L
sg5
L600L
sg6
I00
sg7
L304805L
sg8
S'john.buchanan@enron.com'
p346
sg10
L0L
sg11
L0L
sg12
F0.0
sg13
L0L
sg14
L23L
sg15
L0L
sg16
L125L
sg17
L1215L
sg18
L0L
sg19
L500000L
sg20
L1014505L
sg21
L0L
sg22
L189041L
sg23
L248017L
sg24
L1054637L
sg25
F0.0
sg26
L825464L
ssS'YEAP SOON'
p347
(dp348
g3
L0L
sg4
L0L
sg5
L55097L
sg6
I00
sg7
L0L
sg8
I0
sg10
L0L
sg11
L0L
sg12
F0.0
sg13
L0L
sg14
L0L
sg15
L0L
sg16
L0L
sg17
L0L
sg18
L0L
sg19
L0L
sg20
L192758L
sg21
L0L
sg22
L0L
sg23
L0L
sg24
L55097L
sg25
F0.0
sg26
L192758L
ssS'MURRAY JULIA H'
p349
(dp350
g3
L2192L
sg4
L0L
sg5
L57580L
sg6
I00
sg7
L125000L
sg8
S'julia.murray@enron.com'
p351
sg10
L11L
sg11
L0L
sg12
F0.005018248175182482
sg13
L0L
sg14
L395L
sg15
L0L
sg16
L45L
sg17
L330L
sg18
L0L
sg19
L400000L
sg20
L597461L
sg21
L2L
sg22
L196983L
sg23
L229284L
sg24
L812194L
sg25
F0.044444444444444446
sg26
L400478L
ssS'GARLAND C KEVIN'
p352
(dp353
g3
L209L
sg4
L0L
sg5
L48405L
sg6
I00
sg7
L375304L
sg8
S'kevin.garland@enron.com'
p354
sg10
L10L
sg11
L0L
sg12
F0.04784688995215311
sg13
L0L
sg14
L178L
sg15
L0L
sg16
L44L
sg17
L60814L
sg18
L0L
sg19
L850000L
sg20
L896153L
sg21
L27L
sg22
L259907L
sg23
L231946L
sg24
L1566469L
sg25
F0.6136363636363636
sg26
L636246L
ssS'DODSON KEITH'
p355
(dp356
g3
L176L
sg4
L0L
sg5
L28164L
sg6
I00
sg7
L0L
sg8
S'keith.dodson@enron.com'
p357
sg10
L10L
sg11
L0L
sg12
F0.056818181818181816
sg13
L0L
sg14
L114L
sg15
L0L
sg16
L14L
sg17
L774L
sg18
L0L
sg19
L70000L
sg20
L0L
sg21
L3L
sg22
L0L
sg23
L221003L
sg24
L319941L
sg25
F0.21428571428571427
sg26
L0L
ssS'YEAGER F SCOTT'
p358
(dp359
g3
L0L
sg4
L0L
sg5
L53947L
sg6
I01
sg7
L0L
sg8
S'scott.yeager@enron.com'
p360
sg10
L0L
sg11
L0L
sg12
F0.0
sg13
L0L
sg14
L0L
sg15
L0L
sg16
L0L
sg17
L147950L
sg18
L0L
sg19
L0L
sg20
L11884758L
sg21
L0L
sg22
L3576206L
sg23
L158403L
sg24
L360300L
sg25
F0.0
sg26
L8308552L
ssS'HIRKO JOSEPH'
p361
(dp362
g3
L0L
sg4
L10259L
sg5
L77978L
sg6
I01
sg7
L0L
sg8
S'joe.hirko@enron.com'
p363
sg10
L0L
sg11
L0L
sg12
F0.0
sg13
L0L
sg14
L0L
sg15
L0L
sg16
L0L
sg17
L2856L
sg18
L0L
sg19
L0L
sg20
L30766064L
sg21
L0L
sg22
L0L
sg23
L0L
sg24
L91093L
sg25
F0.0
sg26
L30766064L
ssS'DIETRICH JANET R'
p364
(dp365
g3
L2572L
sg4
L0L
sg5
L3475L
sg6
I00
sg7
L556416L
sg8
S'janet.dietrich@enron.com'
p366
sg10
L305L
sg11
L0L
sg12
F0.11858475894245724
sg13
L0L
sg14
L1902L
sg15
L0L
sg16
L63L
sg17
L473L
sg18
L0L
sg19
L600000L
sg20
L1865087L
sg21
L14L
sg22
L315068L
sg23
L250100L
sg24
L1410464L
sg25
F0.2222222222222222
sg26
L1550019L
ssS'DERRICK JR. JAMES V'
p367
(dp368
g3
L2181L
sg4
L0L
sg5
L51124L
sg6
I00
sg7
L484000L
sg8
S'james.derrick@enron.com'
p369
sg10
L64L
sg11
L-1284000L
sg12
F0.029344337459880788
sg13
L-1787380L
sg14
L1401L
sg15
L0L
sg16
L909L
sg17
L7482L
sg18
L0L
sg19
L800000L
sg20
L8831913L
sg21
L20L
sg22
L1787380L
sg23
L492375L
sg24
L550981L
sg25
F0.022002200220022004
sg26
L8831913L
ssS'FREVERT MARK A'
p370
(dp371
g3
L3275L
sg4
L6426990L
sg5
L86987L
sg6
I00
sg7
L1617011L
sg8
S'mark.frevert@enron.com'
p372
sg10
L242L
sg11
L-3367011L
sg12
F0.07389312977099237
sg13
L0L
sg14
L2979L
sg15
L2000000L
sg16
L21L
sg17
L7427621L
sg18
L0L
sg19
L2000000L
sg20
L14622185L
sg21
L6L
sg22
L4188667L
sg23
L1060932L
sg24
L17252530L
sg25
F0.2857142857142857
sg26
L10433518L
ssS'PAI LOU L'
p373
(dp374
g3
L0L
sg4
L0L
sg5
L32047L
sg6
I00
sg7
L0L
sg8
S'lou.pai@enron.com'
p375
sg10
L0L
sg11
L0L
sg12
F0.0
sg13
L0L
sg14
L0L
sg15
L0L
sg16
L0L
sg17
L1829457L
sg18
L0L
sg19
L1000000L
sg20
L23817930L
sg21
L0L
sg22
L8453763L
sg23
L261879L
sg24
L3123383L
sg25
F0.0
sg26
L15364167L
ssS'HAYSLETT RODERICK J'
p376
(dp377
g3
L2649L
sg4
L0L
sg5
L0L
sg6
I00
sg7
L0L
sg8
S'rod.hayslett@enron.com'
p378
sg10
L35L
sg11
L0L
sg12
F0.01321253303133258
sg13
L0L
sg14
L571L
sg15
L0L
sg16
L1061L
sg17
L0L
sg18
L0L
sg19
L0L
sg20
L346663L
sg21
L38L
sg22
L346663L
sg23
L0L
sg24
L0L
sg25
F0.03581526861451461
sg26
L0L
ssS'BAY FRANKLIN R'
p379
(dp380
g3
L0L
sg4
L260455L
sg5
L129142L
sg6
I00
sg7
L0L
sg8
S'frank.bay@enron.com'
p381
sg10
L0L
sg11
L-201641L
sg12
F0.0
sg13
L-82782L
sg14
L0L
sg15
L0L
sg16
L0L
sg17
L69L
sg18
L0L
sg19
L400000L
sg20
L63014L
sg21
L0L
sg22
L145796L
sg23
L239671L
sg24
L827696L
sg25
F0.0
sg26
L0L
ssS'MCCARTY DANNY J'
p382
(dp383
g3
L1433L
sg4
L0L
sg5
L0L
sg6
I00
sg7
L0L
sg8
S'danny.mccarty@enron.com'
p384
sg10
L25L
sg11
L0L
sg12
F0.017445917655268667
sg13
L0L
sg14
L508L
sg15
L0L
sg16
L215L
sg17
L0L
sg18
L0L
sg19
L0L
sg20
L758931L
sg21
L2L
sg22
L94556L
sg23
L0L
sg24
L0L
sg25
F0.009302325581395349
sg26
L664375L
ssS'FUGH JOHN L'
p385
(dp386
g3
L0L
sg4
L50591L
sg5
L0L
sg6
I00
sg7
L0L
sg8
I0
sg10
L0L
sg11
L0L
sg12
F0.0
sg13
L0L
sg14
L0L
sg15
L0L
sg16
L0L
sg17
L0L
sg18
L0L
sg19
L0L
sg20
L176378L
sg21
L0L
sg22
L0L
sg23
L0L
sg24
L50591L
sg25
F0.0
sg26
L176378L
ssS'SCRIMSHAW MATTHEW'
p387
(dp388
g3
L0L
sg4
L0L
sg5
L0L
sg6
I00
sg7
L0L
sg8
S'matthew.scrimshaw@enron.com'
p389
sg10
L0L
sg11
L0L
sg12
F0.0
sg13
L0L
sg14
L0L
sg15
L0L
sg16
L0L
sg17
L0L
sg18
L0L
sg19
L0L
sg20
L759557L
sg21
L0L
sg22
L0L
sg23
L0L
sg24
L0L
sg25
F0.0
sg26
L759557L
ssS'KOENIG MARK E'
p390
(dp391
g3
L2374L
sg4
L0L
sg5
L127017L
sg6
I01
sg7
L300000L
sg8
S'mark.koenig@enron.com'
p392
sg10
L53L
sg11
L0L
sg12
F0.02232518955349621
sg13
L0L
sg14
L2271L
sg15
L0L
sg16
L61L
sg17
L150458L
sg18
L0L
sg19
L700000L
sg20
L1920055L
sg21
L15L
sg22
L1248318L
sg23
L309946L
sg24
L1587421L
sg25
F0.2459016393442623
sg26
L671737L
ssS'SAVAGE FRANK'
p393
(dp394
g3
L0L
sg4
L0L
sg5
L0L
sg6
I00
sg7
L0L
sg8
I0
sg10
L0L
sg11
L-121284L
sg12
F0.0
sg13
L0L
sg14
L0L
sg15
L0L
sg16
L0L
sg17
L0L
sg18
L125034L
sg19
L0L
sg20
L0L
sg21
L0L
sg22
L0L
sg23
L0L
sg24
L3750L
sg25
F0.0
sg26
L0L
ssS'IZZO LAWRENCE L'
p395
(dp396
g3
L496L
sg4
L0L
sg5
L28093L
sg6
I00
sg7
L312500L
sg8
S'larry.izzo@enron.com'
p397
sg10
L28L
sg11
L0L
sg12
F0.056451612903225805
sg13
L0L
sg14
L437L
sg15
L0L
sg16
L19L
sg17
L1553729L
sg18
L0L
sg19
L0L
sg20
L5819980L
sg21
L5L
sg22
L3654808L
sg23
L85274L
sg24
L1979596L
sg25
F0.2631578947368421
sg26
L2165172L
ssS'TILNEY ELIZABETH A'
p398
(dp399
g3
L460L
sg4
L0L
sg5
L0L
sg6
I00
sg7
L275000L
sg8
S'elizabeth.tilney@enron.com'
p400
sg10
L10L
sg11
L-575000L
sg12
F0.021739130434782608
sg13
L0L
sg14
L379L
sg15
L0L
sg16
L19L
sg17
L152055L
sg18
L0L
sg19
L300000L
sg20
L1168042L
sg21
L11L
sg22
L576792L
sg23
L247338L
sg24
L399393L
sg25
F0.5789473684210527
sg26
L591250L
ssS'MARTIN AMANDA K'
p401
(dp402
g3
L1522L
sg4
L85430L
sg5
L8211L
sg6
I00
sg7
L5145434L
sg8
S'a..martin@enron.com'
p403
sg10
L8L
sg11
L0L
sg12
F0.005256241787122208
sg13
L0L
sg14
L477L
sg15
L0L
sg16
L230L
sg17
L2818454L
sg18
L0L
sg19
L0L
sg20
L2070306L
sg21
L0L
sg22
L0L
sg23
L349487L
sg24
L8407016L
sg25
F0.0
sg26
L2070306L
ssS'BUY RICHARD B'
p404
(dp405
g3
L3523L
sg4
L649584L
sg5
L0L
sg6
I00
sg7
L769862L
sg8
S'rick.buy@enron.com'
p406
sg10
L156L
sg11
L-694862L
sg12
F0.04428044280442804
sg13
L0L
sg14
L2333L
sg15
L0L
sg16
L1053L
sg17
L400572L
sg18
L0L
sg19
L900000L
sg20
L3444470L
sg21
L71L
sg22
L901657L
sg23
L330546L
sg24
L2355702L
sg25
F0.06742640075973409
sg26
L2542813L
ssS'GRAMM WENDY L'
p407
(dp408
g3
L0L
sg4
L0L
sg5
L0L
sg6
I00
sg7
L0L
sg8
I0
sg10
L0L
sg11
L0L
sg12
F0.0
sg13
L0L
sg14
L0L
sg15
L0L
sg16
L0L
sg17
L0L
sg18
L119292L
sg19
L0L
sg20
L0L
sg21
L0L
sg22
L0L
sg23
L0L
sg24
L119292L
sg25
F0.0
sg26
L0L
ssS'CAUSEY RICHARD A'
p409
(dp410
g3
L1892L
sg4
L0L
sg5
L30674L
sg6
I01
sg7
L350000L
sg8
S'richard.causey@enron.com'
p411
sg10
L58L
sg11
L-235000L
sg12
F0.0306553911205074
sg13
L0L
sg14
L1585L
sg15
L0L
sg16
L49L
sg17
L307895L
sg18
L0L
sg19
L1000000L
sg20
L2502063L
sg21
L12L
sg22
L2502063L
sg23
L415189L
sg24
L1868758L
sg25
F0.24489795918367346
sg26
L0L
ssS'TAYLOR MITCHELL S'
p412
(dp413
g3
L533L
sg4
L227449L
sg5
L0L
sg6
I00
sg7
L0L
sg8
S'mitchell.taylor@enron.com'
p414
sg10
L0L
sg11
L0L
sg12
F0.0
sg13
L0L
sg14
L300L
sg15
L0L
sg16
L29L
sg17
L0L
sg18
L0L
sg19
L600000L
sg20
L3745048L
sg21
L0L
sg22
L563798L
sg23
L265214L
sg24
L1092663L
sg25
F0.0
sg26
L3181250L
ssS'DONAHUE JR JEFFREY M'
p415
(dp416
g3
L865L
sg4
L0L
sg5
L96268L
sg6
I00
sg7
L0L
sg8
S'jeff.donahue@enron.com'
p417
sg10
L188L
sg11
L-300000L
sg12
F0.21734104046242775
sg13
L0L
sg14
L772L
sg15
L0L
sg16
L22L
sg17
L891L
sg18
L0L
sg19
L800000L
sg20
L1080988L
sg21
L11L
sg22
L315068L
sg23
L278601L
sg24
L875760L
sg25
F0.5
sg26
L765920L
ssS'GLISAN JR BEN F'
p418
(dp419
g3
L873L
sg4
L0L
sg5
L125978L
sg6
I01
sg7
L71023L
sg8
S'ben.glisan@enron.com'
p420
sg10
L52L
sg11
L0L
sg12
F0.05956471935853379
sg13
L0L
sg14
L874L
sg15
L0L
sg16
L16L
sg17
L200308L
sg18
L0L
sg19
L600000L
sg20
L778546L
sg21
L6L
sg22
L393818L
sg23
L274975L
sg24
L1272284L
sg25
F0.375
sg26
L384728L
ss.