(lp0
S'poi'
p1
aS'salary'
p2
aS'total_payments'
p3
aS'bonus'
p4
aS'total_stock_value'
p5
aS'expenses'
p6
aS'from_poi_to_this_person'
p7
aS'exercised_stock_options'
p8
aS'other'
p9
aS'from_this_person_to_poi'
p10
aS'deferred_income'
p11
aS'shared_receipt_with_poi'
p12
aS'restricted_stock'
p13
aS'long_term_incentive'
p14
a.