(lp0
S'poi'
p1
aS'to_messages'
p2
aS'deferral_payments'
p3
aS'total_payments'
p4
aS'restricted_stock_deferred'
p5
aS'exercised_stock_options'
p6
aS'from_messages'
p7
aS'other'
p8
aS'from_this_person_to_poi'
p9
aS'restricted_stock'
p10
aS'from_poi_to_this_person'
p11
a.